Microsoft (R) COFF/PE Dumper Version 14.32.31332.0
Copyright (C) Microsoft Corporation.  All rights reserved.


Dump of file wrapper.lib

File Type: LIBRARY

Archive member name at 8: /               
62FCAF8B time/date Wed Aug 17 17:06:19 2022
         uid
         gid
       0 mode
    B038 size
correct header end

    433 public symbols

    15E2A ??0CThostFtdcMdSpi@@QEAA@XZ
    15E2A ??0CThostFtdcTraderSpi@@QEAA@XZ
    15E2A ??0Rust_CThostFtdcMdApi@@QEAA@PEAVCThostFtdcMdApi@@@Z
    15E2A ??0Rust_CThostFtdcMdSpi@@QEAA@PEAX@Z
    15E2A ??0Rust_CThostFtdcTraderApi@@QEAA@PEAVCThostFtdcTraderApi@@@Z
    15E2A ??0Rust_CThostFtdcTraderSpi@@QEAA@PEAX@Z
    15E2A ??1Rust_CThostFtdcMdApi@@QEAA@XZ
    15E2A ??1Rust_CThostFtdcMdSpi@@QEAA@XZ
    15E2A ??1Rust_CThostFtdcTraderApi@@QEAA@XZ
    15E2A ??1Rust_CThostFtdcTraderSpi@@QEAA@XZ
    15E2A ??_7CThostFtdcMdSpi@@6B@
    15E2A ??_7CThostFtdcTraderSpi@@6B@
    15E2A ??_7Rust_CThostFtdcMdSpi@@6B@
    15E2A ??_7Rust_CThostFtdcTraderSpi@@6B@
    15E2A ??_R0?AVCThostFtdcMdSpi@@@8
    15E2A ??_R0?AVCThostFtdcTraderSpi@@@8
    15E2A ??_R0?AVRust_CThostFtdcMdSpi@@@8
    15E2A ??_R0?AVRust_CThostFtdcTraderSpi@@@8
    15E2A ??_R1A@?0A@EA@CThostFtdcMdSpi@@8
    15E2A ??_R1A@?0A@EA@CThostFtdcTraderSpi@@8
    15E2A ??_R1A@?0A@EA@Rust_CThostFtdcMdSpi@@8
    15E2A ??_R1A@?0A@EA@Rust_CThostFtdcTraderSpi@@8
    15E2A ??_R1A@?0A@EN@CThostFtdcMdSpi@@8
    15E2A ??_R1A@?0A@EN@CThostFtdcTraderSpi@@8
    15E2A ??_R2CThostFtdcMdSpi@@8
    15E2A ??_R2CThostFtdcTraderSpi@@8
    15E2A ??_R2Rust_CThostFtdcMdSpi@@8
    15E2A ??_R2Rust_CThostFtdcTraderSpi@@8
    15E2A ??_R3CThostFtdcMdSpi@@8
    15E2A ??_R3CThostFtdcTraderSpi@@8
    15E2A ??_R3Rust_CThostFtdcMdSpi@@8
    15E2A ??_R3Rust_CThostFtdcTraderSpi@@8
    15E2A ??_R4CThostFtdcMdSpi@@6B@
    15E2A ??_R4CThostFtdcTraderSpi@@6B@
    15E2A ??_R4Rust_CThostFtdcMdSpi@@6B@
    15E2A ??_R4Rust_CThostFtdcTraderSpi@@6B@
    15E2A ?GetTradingDay@Rust_CThostFtdcMdApi@@QEAAPEBDXZ
    15E2A ?GetTradingDay@Rust_CThostFtdcTraderApi@@QEAAPEBDXZ
    15E2A ?Init@Rust_CThostFtdcMdApi@@QEAAXXZ
    15E2A ?Init@Rust_CThostFtdcTraderApi@@QEAAXXZ
    15E2A ?Join@Rust_CThostFtdcMdApi@@QEAAHXZ
    15E2A ?Join@Rust_CThostFtdcTraderApi@@QEAAHXZ
    15E2A ?OnErrRtnBankToFutureByFuture@CThostFtdcTraderSpi@@UEAAXPEAUCThostFtdcReqTransferField@@PEAUCThostFtdcRspInfoField@@@Z
    15E2A ?OnErrRtnBankToFutureByFuture@Rust_CThostFtdcTraderSpi@@UEAAXPEAUCThostFtdcReqTransferField@@PEAUCThostFtdcRspInfoField@@@Z
    15E2A ?OnErrRtnBatchOrderAction@CThostFtdcTraderSpi@@UEAAXPEAUCThostFtdcBatchOrderActionField@@PEAUCThostFtdcRspInfoField@@@Z
    15E2A ?OnErrRtnBatchOrderAction@Rust_CThostFtdcTraderSpi@@UEAAXPEAUCThostFtdcBatchOrderActionField@@PEAUCThostFtdcRspInfoField@@@Z
    15E2A ?OnErrRtnCombActionInsert@CThostFtdcTraderSpi@@UEAAXPEAUCThostFtdcInputCombActionField@@PEAUCThostFtdcRspInfoField@@@Z
    15E2A ?OnErrRtnCombActionInsert@Rust_CThostFtdcTraderSpi@@UEAAXPEAUCThostFtdcInputCombActionField@@PEAUCThostFtdcRspInfoField@@@Z
    15E2A ?OnErrRtnExecOrderAction@CThostFtdcTraderSpi@@UEAAXPEAUCThostFtdcExecOrderActionField@@PEAUCThostFtdcRspInfoField@@@Z
    15E2A ?OnErrRtnExecOrderAction@Rust_CThostFtdcTraderSpi@@UEAAXPEAUCThostFtdcExecOrderActionField@@PEAUCThostFtdcRspInfoField@@@Z
    15E2A ?OnErrRtnExecOrderInsert@CThostFtdcTraderSpi@@UEAAXPEAUCThostFtdcInputExecOrderField@@PEAUCThostFtdcRspInfoField@@@Z
    15E2A ?OnErrRtnExecOrderInsert@Rust_CThostFtdcTraderSpi@@UEAAXPEAUCThostFtdcInputExecOrderField@@PEAUCThostFtdcRspInfoField@@@Z
    15E2A ?OnErrRtnForQuoteInsert@CThostFtdcTraderSpi@@UEAAXPEAUCThostFtdcInputForQuoteField@@PEAUCThostFtdcRspInfoField@@@Z
    15E2A ?OnErrRtnForQuoteInsert@Rust_CThostFtdcTraderSpi@@UEAAXPEAUCThostFtdcInputForQuoteField@@PEAUCThostFtdcRspInfoField@@@Z
    15E2A ?OnErrRtnFutureToBankByFuture@CThostFtdcTraderSpi@@UEAAXPEAUCThostFtdcReqTransferField@@PEAUCThostFtdcRspInfoField@@@Z
    15E2A ?OnErrRtnFutureToBankByFuture@Rust_CThostFtdcTraderSpi@@UEAAXPEAUCThostFtdcReqTransferField@@PEAUCThostFtdcRspInfoField@@@Z
    15E2A ?OnErrRtnOptionSelfCloseAction@CThostFtdcTraderSpi@@UEAAXPEAUCThostFtdcOptionSelfCloseActionField@@PEAUCThostFtdcRspInfoField@@@Z
    15E2A ?OnErrRtnOptionSelfCloseAction@Rust_CThostFtdcTraderSpi@@UEAAXPEAUCThostFtdcOptionSelfCloseActionField@@PEAUCThostFtdcRspInfoField@@@Z
    15E2A ?OnErrRtnOptionSelfCloseInsert@CThostFtdcTraderSpi@@UEAAXPEAUCThostFtdcInputOptionSelfCloseField@@PEAUCThostFtdcRspInfoField@@@Z
    15E2A ?OnErrRtnOptionSelfCloseInsert@Rust_CThostFtdcTraderSpi@@UEAAXPEAUCThostFtdcInputOptionSelfCloseField@@PEAUCThostFtdcRspInfoField@@@Z
    15E2A ?OnErrRtnOrderAction@CThostFtdcTraderSpi@@UEAAXPEAUCThostFtdcOrderActionField@@PEAUCThostFtdcRspInfoField@@@Z
    15E2A ?OnErrRtnOrderAction@Rust_CThostFtdcTraderSpi@@UEAAXPEAUCThostFtdcOrderActionField@@PEAUCThostFtdcRspInfoField@@@Z
    15E2A ?OnErrRtnOrderInsert@CThostFtdcTraderSpi@@UEAAXPEAUCThostFtdcInputOrderField@@PEAUCThostFtdcRspInfoField@@@Z
    15E2A ?OnErrRtnOrderInsert@Rust_CThostFtdcTraderSpi@@UEAAXPEAUCThostFtdcInputOrderField@@PEAUCThostFtdcRspInfoField@@@Z
    15E2A ?OnErrRtnQueryBankBalanceByFuture@CThostFtdcTraderSpi@@UEAAXPEAUCThostFtdcReqQueryAccountField@@PEAUCThostFtdcRspInfoField@@@Z
    15E2A ?OnErrRtnQueryBankBalanceByFuture@Rust_CThostFtdcTraderSpi@@UEAAXPEAUCThostFtdcReqQueryAccountField@@PEAUCThostFtdcRspInfoField@@@Z
    15E2A ?OnErrRtnQuoteAction@CThostFtdcTraderSpi@@UEAAXPEAUCThostFtdcQuoteActionField@@PEAUCThostFtdcRspInfoField@@@Z
    15E2A ?OnErrRtnQuoteAction@Rust_CThostFtdcTraderSpi@@UEAAXPEAUCThostFtdcQuoteActionField@@PEAUCThostFtdcRspInfoField@@@Z
    15E2A ?OnErrRtnQuoteInsert@CThostFtdcTraderSpi@@UEAAXPEAUCThostFtdcInputQuoteField@@PEAUCThostFtdcRspInfoField@@@Z
    15E2A ?OnErrRtnQuoteInsert@Rust_CThostFtdcTraderSpi@@UEAAXPEAUCThostFtdcInputQuoteField@@PEAUCThostFtdcRspInfoField@@@Z
    15E2A ?OnErrRtnRepealBankToFutureByFutureManual@CThostFtdcTraderSpi@@UEAAXPEAUCThostFtdcReqRepealField@@PEAUCThostFtdcRspInfoField@@@Z
    15E2A ?OnErrRtnRepealBankToFutureByFutureManual@Rust_CThostFtdcTraderSpi@@UEAAXPEAUCThostFtdcReqRepealField@@PEAUCThostFtdcRspInfoField@@@Z
    15E2A ?OnErrRtnRepealFutureToBankByFutureManual@CThostFtdcTraderSpi@@UEAAXPEAUCThostFtdcReqRepealField@@PEAUCThostFtdcRspInfoField@@@Z
    15E2A ?OnErrRtnRepealFutureToBankByFutureManual@Rust_CThostFtdcTraderSpi@@UEAAXPEAUCThostFtdcReqRepealField@@PEAUCThostFtdcRspInfoField@@@Z
    15E2A ?OnFrontConnected@CThostFtdcMdSpi@@UEAAXXZ
    15E2A ?OnFrontConnected@CThostFtdcTraderSpi@@UEAAXXZ
    15E2A ?OnFrontConnected@Rust_CThostFtdcMdSpi@@UEAAXXZ
    15E2A ?OnFrontConnected@Rust_CThostFtdcTraderSpi@@UEAAXXZ
    15E2A ?OnFrontDisconnected@CThostFtdcMdSpi@@UEAAXH@Z
    15E2A ?OnFrontDisconnected@CThostFtdcTraderSpi@@UEAAXH@Z
    15E2A ?OnFrontDisconnected@Rust_CThostFtdcMdSpi@@UEAAXH@Z
    15E2A ?OnFrontDisconnected@Rust_CThostFtdcTraderSpi@@UEAAXH@Z
    15E2A ?OnHeartBeatWarning@CThostFtdcMdSpi@@UEAAXH@Z
    15E2A ?OnHeartBeatWarning@CThostFtdcTraderSpi@@UEAAXH@Z
    15E2A ?OnHeartBeatWarning@Rust_CThostFtdcMdSpi@@UEAAXH@Z
    15E2A ?OnHeartBeatWarning@Rust_CThostFtdcTraderSpi@@UEAAXH@Z
    15E2A ?OnRspAuthenticate@CThostFtdcTraderSpi@@UEAAXPEAUCThostFtdcRspAuthenticateField@@PEAUCThostFtdcRspInfoField@@H_N@Z
    15E2A ?OnRspAuthenticate@Rust_CThostFtdcTraderSpi@@UEAAXPEAUCThostFtdcRspAuthenticateField@@PEAUCThostFtdcRspInfoField@@H_N@Z
    15E2A ?OnRspBatchOrderAction@CThostFtdcTraderSpi@@UEAAXPEAUCThostFtdcInputBatchOrderActionField@@PEAUCThostFtdcRspInfoField@@H_N@Z
    15E2A ?OnRspBatchOrderAction@Rust_CThostFtdcTraderSpi@@UEAAXPEAUCThostFtdcInputBatchOrderActionField@@PEAUCThostFtdcRspInfoField@@H_N@Z
    15E2A ?OnRspCombActionInsert@CThostFtdcTraderSpi@@UEAAXPEAUCThostFtdcInputCombActionField@@PEAUCThostFtdcRspInfoField@@H_N@Z
    15E2A ?OnRspCombActionInsert@Rust_CThostFtdcTraderSpi@@UEAAXPEAUCThostFtdcInputCombActionField@@PEAUCThostFtdcRspInfoField@@H_N@Z
    15E2A ?OnRspError@CThostFtdcMdSpi@@UEAAXPEAUCThostFtdcRspInfoField@@H_N@Z
    15E2A ?OnRspError@CThostFtdcTraderSpi@@UEAAXPEAUCThostFtdcRspInfoField@@H_N@Z
    15E2A ?OnRspError@Rust_CThostFtdcMdSpi@@UEAAXPEAUCThostFtdcRspInfoField@@H_N@Z
    15E2A ?OnRspError@Rust_CThostFtdcTraderSpi@@UEAAXPEAUCThostFtdcRspInfoField@@H_N@Z
    15E2A ?OnRspExecOrderAction@CThostFtdcTraderSpi@@UEAAXPEAUCThostFtdcInputExecOrderActionField@@PEAUCThostFtdcRspInfoField@@H_N@Z
    15E2A ?OnRspExecOrderAction@Rust_CThostFtdcTraderSpi@@UEAAXPEAUCThostFtdcInputExecOrderActionField@@PEAUCThostFtdcRspInfoField@@H_N@Z
    15E2A ?OnRspExecOrderInsert@CThostFtdcTraderSpi@@UEAAXPEAUCThostFtdcInputExecOrderField@@PEAUCThostFtdcRspInfoField@@H_N@Z
    15E2A ?OnRspExecOrderInsert@Rust_CThostFtdcTraderSpi@@UEAAXPEAUCThostFtdcInputExecOrderField@@PEAUCThostFtdcRspInfoField@@H_N@Z
    15E2A ?OnRspForQuoteInsert@CThostFtdcTraderSpi@@UEAAXPEAUCThostFtdcInputForQuoteField@@PEAUCThostFtdcRspInfoField@@H_N@Z
    15E2A ?OnRspForQuoteInsert@Rust_CThostFtdcTraderSpi@@UEAAXPEAUCThostFtdcInputForQuoteField@@PEAUCThostFtdcRspInfoField@@H_N@Z
    15E2A ?OnRspFromBankToFutureByFuture@CThostFtdcTraderSpi@@UEAAXPEAUCThostFtdcReqTransferField@@PEAUCThostFtdcRspInfoField@@H_N@Z
    15E2A ?OnRspFromBankToFutureByFuture@Rust_CThostFtdcTraderSpi@@UEAAXPEAUCThostFtdcReqTransferField@@PEAUCThostFtdcRspInfoField@@H_N@Z
    15E2A ?OnRspFromFutureToBankByFuture@CThostFtdcTraderSpi@@UEAAXPEAUCThostFtdcReqTransferField@@PEAUCThostFtdcRspInfoField@@H_N@Z
    15E2A ?OnRspFromFutureToBankByFuture@Rust_CThostFtdcTraderSpi@@UEAAXPEAUCThostFtdcReqTransferField@@PEAUCThostFtdcRspInfoField@@H_N@Z
    15E2A ?OnRspGenUserCaptcha@CThostFtdcTraderSpi@@UEAAXPEAUCThostFtdcRspGenUserCaptchaField@@PEAUCThostFtdcRspInfoField@@H_N@Z
    15E2A ?OnRspGenUserCaptcha@Rust_CThostFtdcTraderSpi@@UEAAXPEAUCThostFtdcRspGenUserCaptchaField@@PEAUCThostFtdcRspInfoField@@H_N@Z
    15E2A ?OnRspGenUserText@CThostFtdcTraderSpi@@UEAAXPEAUCThostFtdcRspGenUserTextField@@PEAUCThostFtdcRspInfoField@@H_N@Z
    15E2A ?OnRspGenUserText@Rust_CThostFtdcTraderSpi@@UEAAXPEAUCThostFtdcRspGenUserTextField@@PEAUCThostFtdcRspInfoField@@H_N@Z
    15E2A ?OnRspOptionSelfCloseAction@CThostFtdcTraderSpi@@UEAAXPEAUCThostFtdcInputOptionSelfCloseActionField@@PEAUCThostFtdcRspInfoField@@H_N@Z
    15E2A ?OnRspOptionSelfCloseAction@Rust_CThostFtdcTraderSpi@@UEAAXPEAUCThostFtdcInputOptionSelfCloseActionField@@PEAUCThostFtdcRspInfoField@@H_N@Z
    15E2A ?OnRspOptionSelfCloseInsert@CThostFtdcTraderSpi@@UEAAXPEAUCThostFtdcInputOptionSelfCloseField@@PEAUCThostFtdcRspInfoField@@H_N@Z
    15E2A ?OnRspOptionSelfCloseInsert@Rust_CThostFtdcTraderSpi@@UEAAXPEAUCThostFtdcInputOptionSelfCloseField@@PEAUCThostFtdcRspInfoField@@H_N@Z
    15E2A ?OnRspOrderAction@CThostFtdcTraderSpi@@UEAAXPEAUCThostFtdcInputOrderActionField@@PEAUCThostFtdcRspInfoField@@H_N@Z
    15E2A ?OnRspOrderAction@Rust_CThostFtdcTraderSpi@@UEAAXPEAUCThostFtdcInputOrderActionField@@PEAUCThostFtdcRspInfoField@@H_N@Z
    15E2A ?OnRspOrderInsert@CThostFtdcTraderSpi@@UEAAXPEAUCThostFtdcInputOrderField@@PEAUCThostFtdcRspInfoField@@H_N@Z
    15E2A ?OnRspOrderInsert@Rust_CThostFtdcTraderSpi@@UEAAXPEAUCThostFtdcInputOrderField@@PEAUCThostFtdcRspInfoField@@H_N@Z
    15E2A ?OnRspParkedOrderAction@CThostFtdcTraderSpi@@UEAAXPEAUCThostFtdcParkedOrderActionField@@PEAUCThostFtdcRspInfoField@@H_N@Z
    15E2A ?OnRspParkedOrderAction@Rust_CThostFtdcTraderSpi@@UEAAXPEAUCThostFtdcParkedOrderActionField@@PEAUCThostFtdcRspInfoField@@H_N@Z
    15E2A ?OnRspParkedOrderInsert@CThostFtdcTraderSpi@@UEAAXPEAUCThostFtdcParkedOrderField@@PEAUCThostFtdcRspInfoField@@H_N@Z
    15E2A ?OnRspParkedOrderInsert@Rust_CThostFtdcTraderSpi@@UEAAXPEAUCThostFtdcParkedOrderField@@PEAUCThostFtdcRspInfoField@@H_N@Z
    15E2A ?OnRspQryAccountregister@CThostFtdcTraderSpi@@UEAAXPEAUCThostFtdcAccountregisterField@@PEAUCThostFtdcRspInfoField@@H_N@Z
    15E2A ?OnRspQryAccountregister@Rust_CThostFtdcTraderSpi@@UEAAXPEAUCThostFtdcAccountregisterField@@PEAUCThostFtdcRspInfoField@@H_N@Z
    15E2A ?OnRspQryBrokerTradingAlgos@CThostFtdcTraderSpi@@UEAAXPEAUCThostFtdcBrokerTradingAlgosField@@PEAUCThostFtdcRspInfoField@@H_N@Z
    15E2A ?OnRspQryBrokerTradingAlgos@Rust_CThostFtdcTraderSpi@@UEAAXPEAUCThostFtdcBrokerTradingAlgosField@@PEAUCThostFtdcRspInfoField@@H_N@Z
    15E2A ?OnRspQryBrokerTradingParams@CThostFtdcTraderSpi@@UEAAXPEAUCThostFtdcBrokerTradingParamsField@@PEAUCThostFtdcRspInfoField@@H_N@Z
    15E2A ?OnRspQryBrokerTradingParams@Rust_CThostFtdcTraderSpi@@UEAAXPEAUCThostFtdcBrokerTradingParamsField@@PEAUCThostFtdcRspInfoField@@H_N@Z
    15E2A ?OnRspQryCFMMCTradingAccountKey@CThostFtdcTraderSpi@@UEAAXPEAUCThostFtdcCFMMCTradingAccountKeyField@@PEAUCThostFtdcRspInfoField@@H_N@Z
    15E2A ?OnRspQryCFMMCTradingAccountKey@Rust_CThostFtdcTraderSpi@@UEAAXPEAUCThostFtdcCFMMCTradingAccountKeyField@@PEAUCThostFtdcRspInfoField@@H_N@Z
    15E2A ?OnRspQryClassifiedInstrument@CThostFtdcTraderSpi@@UEAAXPEAUCThostFtdcInstrumentField@@PEAUCThostFtdcRspInfoField@@H_N@Z
    15E2A ?OnRspQryClassifiedInstrument@Rust_CThostFtdcTraderSpi@@UEAAXPEAUCThostFtdcInstrumentField@@PEAUCThostFtdcRspInfoField@@H_N@Z
    15E2A ?OnRspQryCombAction@CThostFtdcTraderSpi@@UEAAXPEAUCThostFtdcCombActionField@@PEAUCThostFtdcRspInfoField@@H_N@Z
    15E2A ?OnRspQryCombAction@Rust_CThostFtdcTraderSpi@@UEAAXPEAUCThostFtdcCombActionField@@PEAUCThostFtdcRspInfoField@@H_N@Z
    15E2A ?OnRspQryCombInstrumentGuard@CThostFtdcTraderSpi@@UEAAXPEAUCThostFtdcCombInstrumentGuardField@@PEAUCThostFtdcRspInfoField@@H_N@Z
    15E2A ?OnRspQryCombInstrumentGuard@Rust_CThostFtdcTraderSpi@@UEAAXPEAUCThostFtdcCombInstrumentGuardField@@PEAUCThostFtdcRspInfoField@@H_N@Z
    15E2A ?OnRspQryCombPromotionParam@CThostFtdcTraderSpi@@UEAAXPEAUCThostFtdcCombPromotionParamField@@PEAUCThostFtdcRspInfoField@@H_N@Z
    15E2A ?OnRspQryCombPromotionParam@Rust_CThostFtdcTraderSpi@@UEAAXPEAUCThostFtdcCombPromotionParamField@@PEAUCThostFtdcRspInfoField@@H_N@Z
    15E2A ?OnRspQryContractBank@CThostFtdcTraderSpi@@UEAAXPEAUCThostFtdcContractBankField@@PEAUCThostFtdcRspInfoField@@H_N@Z
    15E2A ?OnRspQryContractBank@Rust_CThostFtdcTraderSpi@@UEAAXPEAUCThostFtdcContractBankField@@PEAUCThostFtdcRspInfoField@@H_N@Z
    15E2A ?OnRspQryDepthMarketData@CThostFtdcTraderSpi@@UEAAXPEAUCThostFtdcDepthMarketDataField@@PEAUCThostFtdcRspInfoField@@H_N@Z
    15E2A ?OnRspQryDepthMarketData@Rust_CThostFtdcTraderSpi@@UEAAXPEAUCThostFtdcDepthMarketDataField@@PEAUCThostFtdcRspInfoField@@H_N@Z
    15E2A ?OnRspQryEWarrantOffset@CThostFtdcTraderSpi@@UEAAXPEAUCThostFtdcEWarrantOffsetField@@PEAUCThostFtdcRspInfoField@@H_N@Z
    15E2A ?OnRspQryEWarrantOffset@Rust_CThostFtdcTraderSpi@@UEAAXPEAUCThostFtdcEWarrantOffsetField@@PEAUCThostFtdcRspInfoField@@H_N@Z
    15E2A ?OnRspQryExchange@CThostFtdcTraderSpi@@UEAAXPEAUCThostFtdcExchangeField@@PEAUCThostFtdcRspInfoField@@H_N@Z
    15E2A ?OnRspQryExchange@Rust_CThostFtdcTraderSpi@@UEAAXPEAUCThostFtdcExchangeField@@PEAUCThostFtdcRspInfoField@@H_N@Z
    15E2A ?OnRspQryExchangeMarginRate@CThostFtdcTraderSpi@@UEAAXPEAUCThostFtdcExchangeMarginRateField@@PEAUCThostFtdcRspInfoField@@H_N@Z
    15E2A ?OnRspQryExchangeMarginRate@Rust_CThostFtdcTraderSpi@@UEAAXPEAUCThostFtdcExchangeMarginRateField@@PEAUCThostFtdcRspInfoField@@H_N@Z
    15E2A ?OnRspQryExchangeMarginRateAdjust@CThostFtdcTraderSpi@@UEAAXPEAUCThostFtdcExchangeMarginRateAdjustField@@PEAUCThostFtdcRspInfoField@@H_N@Z
    15E2A ?OnRspQryExchangeMarginRateAdjust@Rust_CThostFtdcTraderSpi@@UEAAXPEAUCThostFtdcExchangeMarginRateAdjustField@@PEAUCThostFtdcRspInfoField@@H_N@Z
    15E2A ?OnRspQryExchangeRate@CThostFtdcTraderSpi@@UEAAXPEAUCThostFtdcExchangeRateField@@PEAUCThostFtdcRspInfoField@@H_N@Z
    15E2A ?OnRspQryExchangeRate@Rust_CThostFtdcTraderSpi@@UEAAXPEAUCThostFtdcExchangeRateField@@PEAUCThostFtdcRspInfoField@@H_N@Z
    15E2A ?OnRspQryExecOrder@CThostFtdcTraderSpi@@UEAAXPEAUCThostFtdcExecOrderField@@PEAUCThostFtdcRspInfoField@@H_N@Z
    15E2A ?OnRspQryExecOrder@Rust_CThostFtdcTraderSpi@@UEAAXPEAUCThostFtdcExecOrderField@@PEAUCThostFtdcRspInfoField@@H_N@Z
    15E2A ?OnRspQryForQuote@CThostFtdcTraderSpi@@UEAAXPEAUCThostFtdcForQuoteField@@PEAUCThostFtdcRspInfoField@@H_N@Z
    15E2A ?OnRspQryForQuote@Rust_CThostFtdcTraderSpi@@UEAAXPEAUCThostFtdcForQuoteField@@PEAUCThostFtdcRspInfoField@@H_N@Z
    15E2A ?OnRspQryInstrument@CThostFtdcTraderSpi@@UEAAXPEAUCThostFtdcInstrumentField@@PEAUCThostFtdcRspInfoField@@H_N@Z
    15E2A ?OnRspQryInstrument@Rust_CThostFtdcTraderSpi@@UEAAXPEAUCThostFtdcInstrumentField@@PEAUCThostFtdcRspInfoField@@H_N@Z
    15E2A ?OnRspQryInstrumentCommissionRate@CThostFtdcTraderSpi@@UEAAXPEAUCThostFtdcInstrumentCommissionRateField@@PEAUCThostFtdcRspInfoField@@H_N@Z
    15E2A ?OnRspQryInstrumentCommissionRate@Rust_CThostFtdcTraderSpi@@UEAAXPEAUCThostFtdcInstrumentCommissionRateField@@PEAUCThostFtdcRspInfoField@@H_N@Z
    15E2A ?OnRspQryInstrumentMarginRate@CThostFtdcTraderSpi@@UEAAXPEAUCThostFtdcInstrumentMarginRateField@@PEAUCThostFtdcRspInfoField@@H_N@Z
    15E2A ?OnRspQryInstrumentMarginRate@Rust_CThostFtdcTraderSpi@@UEAAXPEAUCThostFtdcInstrumentMarginRateField@@PEAUCThostFtdcRspInfoField@@H_N@Z
    15E2A ?OnRspQryInstrumentOrderCommRate@CThostFtdcTraderSpi@@UEAAXPEAUCThostFtdcInstrumentOrderCommRateField@@PEAUCThostFtdcRspInfoField@@H_N@Z
    15E2A ?OnRspQryInstrumentOrderCommRate@Rust_CThostFtdcTraderSpi@@UEAAXPEAUCThostFtdcInstrumentOrderCommRateField@@PEAUCThostFtdcRspInfoField@@H_N@Z
    15E2A ?OnRspQryInvestUnit@CThostFtdcTraderSpi@@UEAAXPEAUCThostFtdcInvestUnitField@@PEAUCThostFtdcRspInfoField@@H_N@Z
    15E2A ?OnRspQryInvestUnit@Rust_CThostFtdcTraderSpi@@UEAAXPEAUCThostFtdcInvestUnitField@@PEAUCThostFtdcRspInfoField@@H_N@Z
    15E2A ?OnRspQryInvestor@CThostFtdcTraderSpi@@UEAAXPEAUCThostFtdcInvestorField@@PEAUCThostFtdcRspInfoField@@H_N@Z
    15E2A ?OnRspQryInvestor@Rust_CThostFtdcTraderSpi@@UEAAXPEAUCThostFtdcInvestorField@@PEAUCThostFtdcRspInfoField@@H_N@Z
    15E2A ?OnRspQryInvestorPosition@CThostFtdcTraderSpi@@UEAAXPEAUCThostFtdcInvestorPositionField@@PEAUCThostFtdcRspInfoField@@H_N@Z
    15E2A ?OnRspQryInvestorPosition@Rust_CThostFtdcTraderSpi@@UEAAXPEAUCThostFtdcInvestorPositionField@@PEAUCThostFtdcRspInfoField@@H_N@Z
    15E2A ?OnRspQryInvestorPositionCombineDetail@CThostFtdcTraderSpi@@UEAAXPEAUCThostFtdcInvestorPositionCombineDetailField@@PEAUCThostFtdcRspInfoField@@H_N@Z
    15E2A ?OnRspQryInvestorPositionCombineDetail@Rust_CThostFtdcTraderSpi@@UEAAXPEAUCThostFtdcInvestorPositionCombineDetailField@@PEAUCThostFtdcRspInfoField@@H_N@Z
    15E2A ?OnRspQryInvestorPositionDetail@CThostFtdcTraderSpi@@UEAAXPEAUCThostFtdcInvestorPositionDetailField@@PEAUCThostFtdcRspInfoField@@H_N@Z
    15E2A ?OnRspQryInvestorPositionDetail@Rust_CThostFtdcTraderSpi@@UEAAXPEAUCThostFtdcInvestorPositionDetailField@@PEAUCThostFtdcRspInfoField@@H_N@Z
    15E2A ?OnRspQryInvestorProductGroupMargin@CThostFtdcTraderSpi@@UEAAXPEAUCThostFtdcInvestorProductGroupMarginField@@PEAUCThostFtdcRspInfoField@@H_N@Z
    15E2A ?OnRspQryInvestorProductGroupMargin@Rust_CThostFtdcTraderSpi@@UEAAXPEAUCThostFtdcInvestorProductGroupMarginField@@PEAUCThostFtdcRspInfoField@@H_N@Z
    15E2A ?OnRspQryMMInstrumentCommissionRate@CThostFtdcTraderSpi@@UEAAXPEAUCThostFtdcMMInstrumentCommissionRateField@@PEAUCThostFtdcRspInfoField@@H_N@Z
    15E2A ?OnRspQryMMInstrumentCommissionRate@Rust_CThostFtdcTraderSpi@@UEAAXPEAUCThostFtdcMMInstrumentCommissionRateField@@PEAUCThostFtdcRspInfoField@@H_N@Z
    15E2A ?OnRspQryMMOptionInstrCommRate@CThostFtdcTraderSpi@@UEAAXPEAUCThostFtdcMMOptionInstrCommRateField@@PEAUCThostFtdcRspInfoField@@H_N@Z
    15E2A ?OnRspQryMMOptionInstrCommRate@Rust_CThostFtdcTraderSpi@@UEAAXPEAUCThostFtdcMMOptionInstrCommRateField@@PEAUCThostFtdcRspInfoField@@H_N@Z
    15E2A ?OnRspQryMaxOrderVolume@CThostFtdcTraderSpi@@UEAAXPEAUCThostFtdcQryMaxOrderVolumeField@@PEAUCThostFtdcRspInfoField@@H_N@Z
    15E2A ?OnRspQryMaxOrderVolume@Rust_CThostFtdcTraderSpi@@UEAAXPEAUCThostFtdcQryMaxOrderVolumeField@@PEAUCThostFtdcRspInfoField@@H_N@Z
    15E2A ?OnRspQryMulticastInstrument@CThostFtdcMdSpi@@UEAAXPEAUCThostFtdcMulticastInstrumentField@@PEAUCThostFtdcRspInfoField@@H_N@Z
    15E2A ?OnRspQryMulticastInstrument@Rust_CThostFtdcMdSpi@@UEAAXPEAUCThostFtdcMulticastInstrumentField@@PEAUCThostFtdcRspInfoField@@H_N@Z
    15E2A ?OnRspQryNotice@CThostFtdcTraderSpi@@UEAAXPEAUCThostFtdcNoticeField@@PEAUCThostFtdcRspInfoField@@H_N@Z
    15E2A ?OnRspQryNotice@Rust_CThostFtdcTraderSpi@@UEAAXPEAUCThostFtdcNoticeField@@PEAUCThostFtdcRspInfoField@@H_N@Z
    15E2A ?OnRspQryOptionInstrCommRate@CThostFtdcTraderSpi@@UEAAXPEAUCThostFtdcOptionInstrCommRateField@@PEAUCThostFtdcRspInfoField@@H_N@Z
    15E2A ?OnRspQryOptionInstrCommRate@Rust_CThostFtdcTraderSpi@@UEAAXPEAUCThostFtdcOptionInstrCommRateField@@PEAUCThostFtdcRspInfoField@@H_N@Z
    15E2A ?OnRspQryOptionInstrTradeCost@CThostFtdcTraderSpi@@UEAAXPEAUCThostFtdcOptionInstrTradeCostField@@PEAUCThostFtdcRspInfoField@@H_N@Z
    15E2A ?OnRspQryOptionInstrTradeCost@Rust_CThostFtdcTraderSpi@@UEAAXPEAUCThostFtdcOptionInstrTradeCostField@@PEAUCThostFtdcRspInfoField@@H_N@Z
    15E2A ?OnRspQryOptionSelfClose@CThostFtdcTraderSpi@@UEAAXPEAUCThostFtdcOptionSelfCloseField@@PEAUCThostFtdcRspInfoField@@H_N@Z
    15E2A ?OnRspQryOptionSelfClose@Rust_CThostFtdcTraderSpi@@UEAAXPEAUCThostFtdcOptionSelfCloseField@@PEAUCThostFtdcRspInfoField@@H_N@Z
    15E2A ?OnRspQryOrder@CThostFtdcTraderSpi@@UEAAXPEAUCThostFtdcOrderField@@PEAUCThostFtdcRspInfoField@@H_N@Z
    15E2A ?OnRspQryOrder@Rust_CThostFtdcTraderSpi@@UEAAXPEAUCThostFtdcOrderField@@PEAUCThostFtdcRspInfoField@@H_N@Z
    15E2A ?OnRspQryParkedOrder@CThostFtdcTraderSpi@@UEAAXPEAUCThostFtdcParkedOrderField@@PEAUCThostFtdcRspInfoField@@H_N@Z
    15E2A ?OnRspQryParkedOrder@Rust_CThostFtdcTraderSpi@@UEAAXPEAUCThostFtdcParkedOrderField@@PEAUCThostFtdcRspInfoField@@H_N@Z
    15E2A ?OnRspQryParkedOrderAction@CThostFtdcTraderSpi@@UEAAXPEAUCThostFtdcParkedOrderActionField@@PEAUCThostFtdcRspInfoField@@H_N@Z
    15E2A ?OnRspQryParkedOrderAction@Rust_CThostFtdcTraderSpi@@UEAAXPEAUCThostFtdcParkedOrderActionField@@PEAUCThostFtdcRspInfoField@@H_N@Z
    15E2A ?OnRspQryProduct@CThostFtdcTraderSpi@@UEAAXPEAUCThostFtdcProductField@@PEAUCThostFtdcRspInfoField@@H_N@Z
    15E2A ?OnRspQryProduct@Rust_CThostFtdcTraderSpi@@UEAAXPEAUCThostFtdcProductField@@PEAUCThostFtdcRspInfoField@@H_N@Z
    15E2A ?OnRspQryProductExchRate@CThostFtdcTraderSpi@@UEAAXPEAUCThostFtdcProductExchRateField@@PEAUCThostFtdcRspInfoField@@H_N@Z
    15E2A ?OnRspQryProductExchRate@Rust_CThostFtdcTraderSpi@@UEAAXPEAUCThostFtdcProductExchRateField@@PEAUCThostFtdcRspInfoField@@H_N@Z
    15E2A ?OnRspQryProductGroup@CThostFtdcTraderSpi@@UEAAXPEAUCThostFtdcProductGroupField@@PEAUCThostFtdcRspInfoField@@H_N@Z
    15E2A ?OnRspQryProductGroup@Rust_CThostFtdcTraderSpi@@UEAAXPEAUCThostFtdcProductGroupField@@PEAUCThostFtdcRspInfoField@@H_N@Z
    15E2A ?OnRspQryQuote@CThostFtdcTraderSpi@@UEAAXPEAUCThostFtdcQuoteField@@PEAUCThostFtdcRspInfoField@@H_N@Z
    15E2A ?OnRspQryQuote@Rust_CThostFtdcTraderSpi@@UEAAXPEAUCThostFtdcQuoteField@@PEAUCThostFtdcRspInfoField@@H_N@Z
    15E2A ?OnRspQryRiskSettleInvstPosition@CThostFtdcTraderSpi@@UEAAXPEAUCThostFtdcRiskSettleInvstPositionField@@PEAUCThostFtdcRspInfoField@@H_N@Z
    15E2A ?OnRspQryRiskSettleInvstPosition@Rust_CThostFtdcTraderSpi@@UEAAXPEAUCThostFtdcRiskSettleInvstPositionField@@PEAUCThostFtdcRspInfoField@@H_N@Z
    15E2A ?OnRspQryRiskSettleProductStatus@CThostFtdcTraderSpi@@UEAAXPEAUCThostFtdcRiskSettleProductStatusField@@PEAUCThostFtdcRspInfoField@@H_N@Z
    15E2A ?OnRspQryRiskSettleProductStatus@Rust_CThostFtdcTraderSpi@@UEAAXPEAUCThostFtdcRiskSettleProductStatusField@@PEAUCThostFtdcRspInfoField@@H_N@Z
    15E2A ?OnRspQrySecAgentACIDMap@CThostFtdcTraderSpi@@UEAAXPEAUCThostFtdcSecAgentACIDMapField@@PEAUCThostFtdcRspInfoField@@H_N@Z
    15E2A ?OnRspQrySecAgentACIDMap@Rust_CThostFtdcTraderSpi@@UEAAXPEAUCThostFtdcSecAgentACIDMapField@@PEAUCThostFtdcRspInfoField@@H_N@Z
    15E2A ?OnRspQrySecAgentCheckMode@CThostFtdcTraderSpi@@UEAAXPEAUCThostFtdcSecAgentCheckModeField@@PEAUCThostFtdcRspInfoField@@H_N@Z
    15E2A ?OnRspQrySecAgentCheckMode@Rust_CThostFtdcTraderSpi@@UEAAXPEAUCThostFtdcSecAgentCheckModeField@@PEAUCThostFtdcRspInfoField@@H_N@Z
    15E2A ?OnRspQrySecAgentTradeInfo@CThostFtdcTraderSpi@@UEAAXPEAUCThostFtdcSecAgentTradeInfoField@@PEAUCThostFtdcRspInfoField@@H_N@Z
    15E2A ?OnRspQrySecAgentTradeInfo@Rust_CThostFtdcTraderSpi@@UEAAXPEAUCThostFtdcSecAgentTradeInfoField@@PEAUCThostFtdcRspInfoField@@H_N@Z
    15E2A ?OnRspQrySecAgentTradingAccount@CThostFtdcTraderSpi@@UEAAXPEAUCThostFtdcTradingAccountField@@PEAUCThostFtdcRspInfoField@@H_N@Z
    15E2A ?OnRspQrySecAgentTradingAccount@Rust_CThostFtdcTraderSpi@@UEAAXPEAUCThostFtdcTradingAccountField@@PEAUCThostFtdcRspInfoField@@H_N@Z
    15E2A ?OnRspQrySettlementInfo@CThostFtdcTraderSpi@@UEAAXPEAUCThostFtdcSettlementInfoField@@PEAUCThostFtdcRspInfoField@@H_N@Z
    15E2A ?OnRspQrySettlementInfo@Rust_CThostFtdcTraderSpi@@UEAAXPEAUCThostFtdcSettlementInfoField@@PEAUCThostFtdcRspInfoField@@H_N@Z
    15E2A ?OnRspQrySettlementInfoConfirm@CThostFtdcTraderSpi@@UEAAXPEAUCThostFtdcSettlementInfoConfirmField@@PEAUCThostFtdcRspInfoField@@H_N@Z
    15E2A ?OnRspQrySettlementInfoConfirm@Rust_CThostFtdcTraderSpi@@UEAAXPEAUCThostFtdcSettlementInfoConfirmField@@PEAUCThostFtdcRspInfoField@@H_N@Z
    15E2A ?OnRspQryTrade@CThostFtdcTraderSpi@@UEAAXPEAUCThostFtdcTradeField@@PEAUCThostFtdcRspInfoField@@H_N@Z
    15E2A ?OnRspQryTrade@Rust_CThostFtdcTraderSpi@@UEAAXPEAUCThostFtdcTradeField@@PEAUCThostFtdcRspInfoField@@H_N@Z
    15E2A ?OnRspQryTradingAccount@CThostFtdcTraderSpi@@UEAAXPEAUCThostFtdcTradingAccountField@@PEAUCThostFtdcRspInfoField@@H_N@Z
    15E2A ?OnRspQryTradingAccount@Rust_CThostFtdcTraderSpi@@UEAAXPEAUCThostFtdcTradingAccountField@@PEAUCThostFtdcRspInfoField@@H_N@Z
    15E2A ?OnRspQryTradingCode@CThostFtdcTraderSpi@@UEAAXPEAUCThostFtdcTradingCodeField@@PEAUCThostFtdcRspInfoField@@H_N@Z
    15E2A ?OnRspQryTradingCode@Rust_CThostFtdcTraderSpi@@UEAAXPEAUCThostFtdcTradingCodeField@@PEAUCThostFtdcRspInfoField@@H_N@Z
    15E2A ?OnRspQryTradingNotice@CThostFtdcTraderSpi@@UEAAXPEAUCThostFtdcTradingNoticeField@@PEAUCThostFtdcRspInfoField@@H_N@Z
    15E2A ?OnRspQryTradingNotice@Rust_CThostFtdcTraderSpi@@UEAAXPEAUCThostFtdcTradingNoticeField@@PEAUCThostFtdcRspInfoField@@H_N@Z
    15E2A ?OnRspQryTransferBank@CThostFtdcTraderSpi@@UEAAXPEAUCThostFtdcTransferBankField@@PEAUCThostFtdcRspInfoField@@H_N@Z
    15E2A ?OnRspQryTransferBank@Rust_CThostFtdcTraderSpi@@UEAAXPEAUCThostFtdcTransferBankField@@PEAUCThostFtdcRspInfoField@@H_N@Z
    15E2A ?OnRspQryTransferSerial@CThostFtdcTraderSpi@@UEAAXPEAUCThostFtdcTransferSerialField@@PEAUCThostFtdcRspInfoField@@H_N@Z
    15E2A ?OnRspQryTransferSerial@Rust_CThostFtdcTraderSpi@@UEAAXPEAUCThostFtdcTransferSerialField@@PEAUCThostFtdcRspInfoField@@H_N@Z
    15E2A ?OnRspQueryBankAccountMoneyByFuture@CThostFtdcTraderSpi@@UEAAXPEAUCThostFtdcReqQueryAccountField@@PEAUCThostFtdcRspInfoField@@H_N@Z
    15E2A ?OnRspQueryBankAccountMoneyByFuture@Rust_CThostFtdcTraderSpi@@UEAAXPEAUCThostFtdcReqQueryAccountField@@PEAUCThostFtdcRspInfoField@@H_N@Z
    15E2A ?OnRspQueryCFMMCTradingAccountToken@CThostFtdcTraderSpi@@UEAAXPEAUCThostFtdcQueryCFMMCTradingAccountTokenField@@PEAUCThostFtdcRspInfoField@@H_N@Z
    15E2A ?OnRspQueryCFMMCTradingAccountToken@Rust_CThostFtdcTraderSpi@@UEAAXPEAUCThostFtdcQueryCFMMCTradingAccountTokenField@@PEAUCThostFtdcRspInfoField@@H_N@Z
    15E2A ?OnRspQuoteAction@CThostFtdcTraderSpi@@UEAAXPEAUCThostFtdcInputQuoteActionField@@PEAUCThostFtdcRspInfoField@@H_N@Z
    15E2A ?OnRspQuoteAction@Rust_CThostFtdcTraderSpi@@UEAAXPEAUCThostFtdcInputQuoteActionField@@PEAUCThostFtdcRspInfoField@@H_N@Z
    15E2A ?OnRspQuoteInsert@CThostFtdcTraderSpi@@UEAAXPEAUCThostFtdcInputQuoteField@@PEAUCThostFtdcRspInfoField@@H_N@Z
    15E2A ?OnRspQuoteInsert@Rust_CThostFtdcTraderSpi@@UEAAXPEAUCThostFtdcInputQuoteField@@PEAUCThostFtdcRspInfoField@@H_N@Z
    15E2A ?OnRspRemoveParkedOrder@CThostFtdcTraderSpi@@UEAAXPEAUCThostFtdcRemoveParkedOrderField@@PEAUCThostFtdcRspInfoField@@H_N@Z
    15E2A ?OnRspRemoveParkedOrder@Rust_CThostFtdcTraderSpi@@UEAAXPEAUCThostFtdcRemoveParkedOrderField@@PEAUCThostFtdcRspInfoField@@H_N@Z
    15E2A ?OnRspRemoveParkedOrderAction@CThostFtdcTraderSpi@@UEAAXPEAUCThostFtdcRemoveParkedOrderActionField@@PEAUCThostFtdcRspInfoField@@H_N@Z
    15E2A ?OnRspRemoveParkedOrderAction@Rust_CThostFtdcTraderSpi@@UEAAXPEAUCThostFtdcRemoveParkedOrderActionField@@PEAUCThostFtdcRspInfoField@@H_N@Z
    15E2A ?OnRspSettlementInfoConfirm@CThostFtdcTraderSpi@@UEAAXPEAUCThostFtdcSettlementInfoConfirmField@@PEAUCThostFtdcRspInfoField@@H_N@Z
    15E2A ?OnRspSettlementInfoConfirm@Rust_CThostFtdcTraderSpi@@UEAAXPEAUCThostFtdcSettlementInfoConfirmField@@PEAUCThostFtdcRspInfoField@@H_N@Z
    15E2A ?OnRspSubForQuoteRsp@CThostFtdcMdSpi@@UEAAXPEAUCThostFtdcSpecificInstrumentField@@PEAUCThostFtdcRspInfoField@@H_N@Z
    15E2A ?OnRspSubForQuoteRsp@Rust_CThostFtdcMdSpi@@UEAAXPEAUCThostFtdcSpecificInstrumentField@@PEAUCThostFtdcRspInfoField@@H_N@Z
    15E2A ?OnRspSubMarketData@CThostFtdcMdSpi@@UEAAXPEAUCThostFtdcSpecificInstrumentField@@PEAUCThostFtdcRspInfoField@@H_N@Z
    15E2A ?OnRspSubMarketData@Rust_CThostFtdcMdSpi@@UEAAXPEAUCThostFtdcSpecificInstrumentField@@PEAUCThostFtdcRspInfoField@@H_N@Z
    15E2A ?OnRspTradingAccountPasswordUpdate@CThostFtdcTraderSpi@@UEAAXPEAUCThostFtdcTradingAccountPasswordUpdateField@@PEAUCThostFtdcRspInfoField@@H_N@Z
    15E2A ?OnRspTradingAccountPasswordUpdate@Rust_CThostFtdcTraderSpi@@UEAAXPEAUCThostFtdcTradingAccountPasswordUpdateField@@PEAUCThostFtdcRspInfoField@@H_N@Z
    15E2A ?OnRspUnSubForQuoteRsp@CThostFtdcMdSpi@@UEAAXPEAUCThostFtdcSpecificInstrumentField@@PEAUCThostFtdcRspInfoField@@H_N@Z
    15E2A ?OnRspUnSubForQuoteRsp@Rust_CThostFtdcMdSpi@@UEAAXPEAUCThostFtdcSpecificInstrumentField@@PEAUCThostFtdcRspInfoField@@H_N@Z
    15E2A ?OnRspUnSubMarketData@CThostFtdcMdSpi@@UEAAXPEAUCThostFtdcSpecificInstrumentField@@PEAUCThostFtdcRspInfoField@@H_N@Z
    15E2A ?OnRspUnSubMarketData@Rust_CThostFtdcMdSpi@@UEAAXPEAUCThostFtdcSpecificInstrumentField@@PEAUCThostFtdcRspInfoField@@H_N@Z
    15E2A ?OnRspUserAuthMethod@CThostFtdcTraderSpi@@UEAAXPEAUCThostFtdcRspUserAuthMethodField@@PEAUCThostFtdcRspInfoField@@H_N@Z
    15E2A ?OnRspUserAuthMethod@Rust_CThostFtdcTraderSpi@@UEAAXPEAUCThostFtdcRspUserAuthMethodField@@PEAUCThostFtdcRspInfoField@@H_N@Z
    15E2A ?OnRspUserLogin@CThostFtdcMdSpi@@UEAAXPEAUCThostFtdcRspUserLoginField@@PEAUCThostFtdcRspInfoField@@H_N@Z
    15E2A ?OnRspUserLogin@CThostFtdcTraderSpi@@UEAAXPEAUCThostFtdcRspUserLoginField@@PEAUCThostFtdcRspInfoField@@H_N@Z
    15E2A ?OnRspUserLogin@Rust_CThostFtdcMdSpi@@UEAAXPEAUCThostFtdcRspUserLoginField@@PEAUCThostFtdcRspInfoField@@H_N@Z
    15E2A ?OnRspUserLogin@Rust_CThostFtdcTraderSpi@@UEAAXPEAUCThostFtdcRspUserLoginField@@PEAUCThostFtdcRspInfoField@@H_N@Z
    15E2A ?OnRspUserLogout@CThostFtdcMdSpi@@UEAAXPEAUCThostFtdcUserLogoutField@@PEAUCThostFtdcRspInfoField@@H_N@Z
    15E2A ?OnRspUserLogout@CThostFtdcTraderSpi@@UEAAXPEAUCThostFtdcUserLogoutField@@PEAUCThostFtdcRspInfoField@@H_N@Z
    15E2A ?OnRspUserLogout@Rust_CThostFtdcMdSpi@@UEAAXPEAUCThostFtdcUserLogoutField@@PEAUCThostFtdcRspInfoField@@H_N@Z
    15E2A ?OnRspUserLogout@Rust_CThostFtdcTraderSpi@@UEAAXPEAUCThostFtdcUserLogoutField@@PEAUCThostFtdcRspInfoField@@H_N@Z
    15E2A ?OnRspUserPasswordUpdate@CThostFtdcTraderSpi@@UEAAXPEAUCThostFtdcUserPasswordUpdateField@@PEAUCThostFtdcRspInfoField@@H_N@Z
    15E2A ?OnRspUserPasswordUpdate@Rust_CThostFtdcTraderSpi@@UEAAXPEAUCThostFtdcUserPasswordUpdateField@@PEAUCThostFtdcRspInfoField@@H_N@Z
    15E2A ?OnRtnBulletin@CThostFtdcTraderSpi@@UEAAXPEAUCThostFtdcBulletinField@@@Z
    15E2A ?OnRtnBulletin@Rust_CThostFtdcTraderSpi@@UEAAXPEAUCThostFtdcBulletinField@@@Z
    15E2A ?OnRtnCFMMCTradingAccountToken@CThostFtdcTraderSpi@@UEAAXPEAUCThostFtdcCFMMCTradingAccountTokenField@@@Z
    15E2A ?OnRtnCFMMCTradingAccountToken@Rust_CThostFtdcTraderSpi@@UEAAXPEAUCThostFtdcCFMMCTradingAccountTokenField@@@Z
    15E2A ?OnRtnCancelAccountByBank@CThostFtdcTraderSpi@@UEAAXPEAUCThostFtdcCancelAccountField@@@Z
    15E2A ?OnRtnCancelAccountByBank@Rust_CThostFtdcTraderSpi@@UEAAXPEAUCThostFtdcCancelAccountField@@@Z
    15E2A ?OnRtnChangeAccountByBank@CThostFtdcTraderSpi@@UEAAXPEAUCThostFtdcChangeAccountField@@@Z
    15E2A ?OnRtnChangeAccountByBank@Rust_CThostFtdcTraderSpi@@UEAAXPEAUCThostFtdcChangeAccountField@@@Z
    15E2A ?OnRtnCombAction@CThostFtdcTraderSpi@@UEAAXPEAUCThostFtdcCombActionField@@@Z
    15E2A ?OnRtnCombAction@Rust_CThostFtdcTraderSpi@@UEAAXPEAUCThostFtdcCombActionField@@@Z
    15E2A ?OnRtnDepthMarketData@CThostFtdcMdSpi@@UEAAXPEAUCThostFtdcDepthMarketDataField@@@Z
    15E2A ?OnRtnDepthMarketData@Rust_CThostFtdcMdSpi@@UEAAXPEAUCThostFtdcDepthMarketDataField@@@Z
    15E2A ?OnRtnErrorConditionalOrder@CThostFtdcTraderSpi@@UEAAXPEAUCThostFtdcErrorConditionalOrderField@@@Z
    15E2A ?OnRtnErrorConditionalOrder@Rust_CThostFtdcTraderSpi@@UEAAXPEAUCThostFtdcErrorConditionalOrderField@@@Z
    15E2A ?OnRtnExecOrder@CThostFtdcTraderSpi@@UEAAXPEAUCThostFtdcExecOrderField@@@Z
    15E2A ?OnRtnExecOrder@Rust_CThostFtdcTraderSpi@@UEAAXPEAUCThostFtdcExecOrderField@@@Z
    15E2A ?OnRtnForQuoteRsp@CThostFtdcMdSpi@@UEAAXPEAUCThostFtdcForQuoteRspField@@@Z
    15E2A ?OnRtnForQuoteRsp@CThostFtdcTraderSpi@@UEAAXPEAUCThostFtdcForQuoteRspField@@@Z
    15E2A ?OnRtnForQuoteRsp@Rust_CThostFtdcMdSpi@@UEAAXPEAUCThostFtdcForQuoteRspField@@@Z
    15E2A ?OnRtnForQuoteRsp@Rust_CThostFtdcTraderSpi@@UEAAXPEAUCThostFtdcForQuoteRspField@@@Z
    15E2A ?OnRtnFromBankToFutureByBank@CThostFtdcTraderSpi@@UEAAXPEAUCThostFtdcRspTransferField@@@Z
    15E2A ?OnRtnFromBankToFutureByBank@Rust_CThostFtdcTraderSpi@@UEAAXPEAUCThostFtdcRspTransferField@@@Z
    15E2A ?OnRtnFromBankToFutureByFuture@CThostFtdcTraderSpi@@UEAAXPEAUCThostFtdcRspTransferField@@@Z
    15E2A ?OnRtnFromBankToFutureByFuture@Rust_CThostFtdcTraderSpi@@UEAAXPEAUCThostFtdcRspTransferField@@@Z
    15E2A ?OnRtnFromFutureToBankByBank@CThostFtdcTraderSpi@@UEAAXPEAUCThostFtdcRspTransferField@@@Z
    15E2A ?OnRtnFromFutureToBankByBank@Rust_CThostFtdcTraderSpi@@UEAAXPEAUCThostFtdcRspTransferField@@@Z
    15E2A ?OnRtnFromFutureToBankByFuture@CThostFtdcTraderSpi@@UEAAXPEAUCThostFtdcRspTransferField@@@Z
    15E2A ?OnRtnFromFutureToBankByFuture@Rust_CThostFtdcTraderSpi@@UEAAXPEAUCThostFtdcRspTransferField@@@Z
    15E2A ?OnRtnInstrumentStatus@CThostFtdcTraderSpi@@UEAAXPEAUCThostFtdcInstrumentStatusField@@@Z
    15E2A ?OnRtnInstrumentStatus@Rust_CThostFtdcTraderSpi@@UEAAXPEAUCThostFtdcInstrumentStatusField@@@Z
    15E2A ?OnRtnOpenAccountByBank@CThostFtdcTraderSpi@@UEAAXPEAUCThostFtdcOpenAccountField@@@Z
    15E2A ?OnRtnOpenAccountByBank@Rust_CThostFtdcTraderSpi@@UEAAXPEAUCThostFtdcOpenAccountField@@@Z
    15E2A ?OnRtnOptionSelfClose@CThostFtdcTraderSpi@@UEAAXPEAUCThostFtdcOptionSelfCloseField@@@Z
    15E2A ?OnRtnOptionSelfClose@Rust_CThostFtdcTraderSpi@@UEAAXPEAUCThostFtdcOptionSelfCloseField@@@Z
    15E2A ?OnRtnOrder@CThostFtdcTraderSpi@@UEAAXPEAUCThostFtdcOrderField@@@Z
    15E2A ?OnRtnOrder@Rust_CThostFtdcTraderSpi@@UEAAXPEAUCThostFtdcOrderField@@@Z
    15E2A ?OnRtnQueryBankBalanceByFuture@CThostFtdcTraderSpi@@UEAAXPEAUCThostFtdcNotifyQueryAccountField@@@Z
    15E2A ?OnRtnQueryBankBalanceByFuture@Rust_CThostFtdcTraderSpi@@UEAAXPEAUCThostFtdcNotifyQueryAccountField@@@Z
    15E2A ?OnRtnQuote@CThostFtdcTraderSpi@@UEAAXPEAUCThostFtdcQuoteField@@@Z
    15E2A ?OnRtnQuote@Rust_CThostFtdcTraderSpi@@UEAAXPEAUCThostFtdcQuoteField@@@Z
    15E2A ?OnRtnRepealFromBankToFutureByBank@CThostFtdcTraderSpi@@UEAAXPEAUCThostFtdcRspRepealField@@@Z
    15E2A ?OnRtnRepealFromBankToFutureByBank@Rust_CThostFtdcTraderSpi@@UEAAXPEAUCThostFtdcRspRepealField@@@Z
    15E2A ?OnRtnRepealFromBankToFutureByFuture@CThostFtdcTraderSpi@@UEAAXPEAUCThostFtdcRspRepealField@@@Z
    15E2A ?OnRtnRepealFromBankToFutureByFuture@Rust_CThostFtdcTraderSpi@@UEAAXPEAUCThostFtdcRspRepealField@@@Z
    15E2A ?OnRtnRepealFromBankToFutureByFutureManual@CThostFtdcTraderSpi@@UEAAXPEAUCThostFtdcRspRepealField@@@Z
    15E2A ?OnRtnRepealFromBankToFutureByFutureManual@Rust_CThostFtdcTraderSpi@@UEAAXPEAUCThostFtdcRspRepealField@@@Z
    15E2A ?OnRtnRepealFromFutureToBankByBank@CThostFtdcTraderSpi@@UEAAXPEAUCThostFtdcRspRepealField@@@Z
    15E2A ?OnRtnRepealFromFutureToBankByBank@Rust_CThostFtdcTraderSpi@@UEAAXPEAUCThostFtdcRspRepealField@@@Z
    15E2A ?OnRtnRepealFromFutureToBankByFuture@CThostFtdcTraderSpi@@UEAAXPEAUCThostFtdcRspRepealField@@@Z
    15E2A ?OnRtnRepealFromFutureToBankByFuture@Rust_CThostFtdcTraderSpi@@UEAAXPEAUCThostFtdcRspRepealField@@@Z
    15E2A ?OnRtnRepealFromFutureToBankByFutureManual@CThostFtdcTraderSpi@@UEAAXPEAUCThostFtdcRspRepealField@@@Z
    15E2A ?OnRtnRepealFromFutureToBankByFutureManual@Rust_CThostFtdcTraderSpi@@UEAAXPEAUCThostFtdcRspRepealField@@@Z
    15E2A ?OnRtnTrade@CThostFtdcTraderSpi@@UEAAXPEAUCThostFtdcTradeField@@@Z
    15E2A ?OnRtnTrade@Rust_CThostFtdcTraderSpi@@UEAAXPEAUCThostFtdcTradeField@@@Z
    15E2A ?OnRtnTradingNotice@CThostFtdcTraderSpi@@UEAAXPEAUCThostFtdcTradingNoticeInfoField@@@Z
    15E2A ?OnRtnTradingNotice@Rust_CThostFtdcTraderSpi@@UEAAXPEAUCThostFtdcTradingNoticeInfoField@@@Z
    15E2A ?RegisterFensUserInfo@Rust_CThostFtdcMdApi@@QEAAXPEAUCThostFtdcFensUserInfoField@@@Z
    15E2A ?RegisterFensUserInfo@Rust_CThostFtdcTraderApi@@QEAAXPEAUCThostFtdcFensUserInfoField@@@Z
    15E2A ?RegisterFront@Rust_CThostFtdcMdApi@@QEAAXPEAD@Z
    15E2A ?RegisterFront@Rust_CThostFtdcTraderApi@@QEAAXPEAD@Z
    15E2A ?RegisterNameServer@Rust_CThostFtdcMdApi@@QEAAXPEAD@Z
    15E2A ?RegisterNameServer@Rust_CThostFtdcTraderApi@@QEAAXPEAD@Z
    15E2A ?RegisterSpi@Rust_CThostFtdcMdApi@@QEAAXPEAVCThostFtdcMdSpi@@@Z
    15E2A ?RegisterSpi@Rust_CThostFtdcTraderApi@@QEAAXPEAVCThostFtdcTraderSpi@@@Z
    15E2A ?RegisterUserSystemInfo@Rust_CThostFtdcTraderApi@@QEAAHPEAUCThostFtdcUserSystemInfoField@@@Z
    15E2A ?Release@Rust_CThostFtdcMdApi@@QEAAXXZ
    15E2A ?Release@Rust_CThostFtdcTraderApi@@QEAAXXZ
    15E2A ?ReqAuthenticate@Rust_CThostFtdcTraderApi@@QEAAHPEAUCThostFtdcReqAuthenticateField@@H@Z
    15E2A ?ReqBatchOrderAction@Rust_CThostFtdcTraderApi@@QEAAHPEAUCThostFtdcInputBatchOrderActionField@@H@Z
    15E2A ?ReqCombActionInsert@Rust_CThostFtdcTraderApi@@QEAAHPEAUCThostFtdcInputCombActionField@@H@Z
    15E2A ?ReqExecOrderAction@Rust_CThostFtdcTraderApi@@QEAAHPEAUCThostFtdcInputExecOrderActionField@@H@Z
    15E2A ?ReqExecOrderInsert@Rust_CThostFtdcTraderApi@@QEAAHPEAUCThostFtdcInputExecOrderField@@H@Z
    15E2A ?ReqForQuoteInsert@Rust_CThostFtdcTraderApi@@QEAAHPEAUCThostFtdcInputForQuoteField@@H@Z
    15E2A ?ReqFromBankToFutureByFuture@Rust_CThostFtdcTraderApi@@QEAAHPEAUCThostFtdcReqTransferField@@H@Z
    15E2A ?ReqFromFutureToBankByFuture@Rust_CThostFtdcTraderApi@@QEAAHPEAUCThostFtdcReqTransferField@@H@Z
    15E2A ?ReqGenUserCaptcha@Rust_CThostFtdcTraderApi@@QEAAHPEAUCThostFtdcReqGenUserCaptchaField@@H@Z
    15E2A ?ReqGenUserText@Rust_CThostFtdcTraderApi@@QEAAHPEAUCThostFtdcReqGenUserTextField@@H@Z
    15E2A ?ReqOptionSelfCloseAction@Rust_CThostFtdcTraderApi@@QEAAHPEAUCThostFtdcInputOptionSelfCloseActionField@@H@Z
    15E2A ?ReqOptionSelfCloseInsert@Rust_CThostFtdcTraderApi@@QEAAHPEAUCThostFtdcInputOptionSelfCloseField@@H@Z
    15E2A ?ReqOrderAction@Rust_CThostFtdcTraderApi@@QEAAHPEAUCThostFtdcInputOrderActionField@@H@Z
    15E2A ?ReqOrderInsert@Rust_CThostFtdcTraderApi@@QEAAHPEAUCThostFtdcInputOrderField@@H@Z
    15E2A ?ReqParkedOrderAction@Rust_CThostFtdcTraderApi@@QEAAHPEAUCThostFtdcParkedOrderActionField@@H@Z
    15E2A ?ReqParkedOrderInsert@Rust_CThostFtdcTraderApi@@QEAAHPEAUCThostFtdcParkedOrderField@@H@Z
    15E2A ?ReqQryAccountregister@Rust_CThostFtdcTraderApi@@QEAAHPEAUCThostFtdcQryAccountregisterField@@H@Z
    15E2A ?ReqQryBrokerTradingAlgos@Rust_CThostFtdcTraderApi@@QEAAHPEAUCThostFtdcQryBrokerTradingAlgosField@@H@Z
    15E2A ?ReqQryBrokerTradingParams@Rust_CThostFtdcTraderApi@@QEAAHPEAUCThostFtdcQryBrokerTradingParamsField@@H@Z
    15E2A ?ReqQryCFMMCTradingAccountKey@Rust_CThostFtdcTraderApi@@QEAAHPEAUCThostFtdcQryCFMMCTradingAccountKeyField@@H@Z
    15E2A ?ReqQryClassifiedInstrument@Rust_CThostFtdcTraderApi@@QEAAHPEAUCThostFtdcQryClassifiedInstrumentField@@H@Z
    15E2A ?ReqQryCombAction@Rust_CThostFtdcTraderApi@@QEAAHPEAUCThostFtdcQryCombActionField@@H@Z
    15E2A ?ReqQryCombInstrumentGuard@Rust_CThostFtdcTraderApi@@QEAAHPEAUCThostFtdcQryCombInstrumentGuardField@@H@Z
    15E2A ?ReqQryCombPromotionParam@Rust_CThostFtdcTraderApi@@QEAAHPEAUCThostFtdcQryCombPromotionParamField@@H@Z
    15E2A ?ReqQryContractBank@Rust_CThostFtdcTraderApi@@QEAAHPEAUCThostFtdcQryContractBankField@@H@Z
    15E2A ?ReqQryDepthMarketData@Rust_CThostFtdcTraderApi@@QEAAHPEAUCThostFtdcQryDepthMarketDataField@@H@Z
    15E2A ?ReqQryEWarrantOffset@Rust_CThostFtdcTraderApi@@QEAAHPEAUCThostFtdcQryEWarrantOffsetField@@H@Z
    15E2A ?ReqQryExchange@Rust_CThostFtdcTraderApi@@QEAAHPEAUCThostFtdcQryExchangeField@@H@Z
    15E2A ?ReqQryExchangeMarginRate@Rust_CThostFtdcTraderApi@@QEAAHPEAUCThostFtdcQryExchangeMarginRateField@@H@Z
    15E2A ?ReqQryExchangeMarginRateAdjust@Rust_CThostFtdcTraderApi@@QEAAHPEAUCThostFtdcQryExchangeMarginRateAdjustField@@H@Z
    15E2A ?ReqQryExchangeRate@Rust_CThostFtdcTraderApi@@QEAAHPEAUCThostFtdcQryExchangeRateField@@H@Z
    15E2A ?ReqQryExecOrder@Rust_CThostFtdcTraderApi@@QEAAHPEAUCThostFtdcQryExecOrderField@@H@Z
    15E2A ?ReqQryForQuote@Rust_CThostFtdcTraderApi@@QEAAHPEAUCThostFtdcQryForQuoteField@@H@Z
    15E2A ?ReqQryInstrument@Rust_CThostFtdcTraderApi@@QEAAHPEAUCThostFtdcQryInstrumentField@@H@Z
    15E2A ?ReqQryInstrumentCommissionRate@Rust_CThostFtdcTraderApi@@QEAAHPEAUCThostFtdcQryInstrumentCommissionRateField@@H@Z
    15E2A ?ReqQryInstrumentMarginRate@Rust_CThostFtdcTraderApi@@QEAAHPEAUCThostFtdcQryInstrumentMarginRateField@@H@Z
    15E2A ?ReqQryInstrumentOrderCommRate@Rust_CThostFtdcTraderApi@@QEAAHPEAUCThostFtdcQryInstrumentOrderCommRateField@@H@Z
    15E2A ?ReqQryInvestUnit@Rust_CThostFtdcTraderApi@@QEAAHPEAUCThostFtdcQryInvestUnitField@@H@Z
    15E2A ?ReqQryInvestor@Rust_CThostFtdcTraderApi@@QEAAHPEAUCThostFtdcQryInvestorField@@H@Z
    15E2A ?ReqQryInvestorPosition@Rust_CThostFtdcTraderApi@@QEAAHPEAUCThostFtdcQryInvestorPositionField@@H@Z
    15E2A ?ReqQryInvestorPositionCombineDetail@Rust_CThostFtdcTraderApi@@QEAAHPEAUCThostFtdcQryInvestorPositionCombineDetailField@@H@Z
    15E2A ?ReqQryInvestorPositionDetail@Rust_CThostFtdcTraderApi@@QEAAHPEAUCThostFtdcQryInvestorPositionDetailField@@H@Z
    15E2A ?ReqQryInvestorProductGroupMargin@Rust_CThostFtdcTraderApi@@QEAAHPEAUCThostFtdcQryInvestorProductGroupMarginField@@H@Z
    15E2A ?ReqQryMMInstrumentCommissionRate@Rust_CThostFtdcTraderApi@@QEAAHPEAUCThostFtdcQryMMInstrumentCommissionRateField@@H@Z
    15E2A ?ReqQryMMOptionInstrCommRate@Rust_CThostFtdcTraderApi@@QEAAHPEAUCThostFtdcQryMMOptionInstrCommRateField@@H@Z
    15E2A ?ReqQryMaxOrderVolume@Rust_CThostFtdcTraderApi@@QEAAHPEAUCThostFtdcQryMaxOrderVolumeField@@H@Z
    15E2A ?ReqQryMulticastInstrument@Rust_CThostFtdcMdApi@@QEAAHPEAUCThostFtdcQryMulticastInstrumentField@@H@Z
    15E2A ?ReqQryNotice@Rust_CThostFtdcTraderApi@@QEAAHPEAUCThostFtdcQryNoticeField@@H@Z
    15E2A ?ReqQryOptionInstrCommRate@Rust_CThostFtdcTraderApi@@QEAAHPEAUCThostFtdcQryOptionInstrCommRateField@@H@Z
    15E2A ?ReqQryOptionInstrTradeCost@Rust_CThostFtdcTraderApi@@QEAAHPEAUCThostFtdcQryOptionInstrTradeCostField@@H@Z
    15E2A ?ReqQryOptionSelfClose@Rust_CThostFtdcTraderApi@@QEAAHPEAUCThostFtdcQryOptionSelfCloseField@@H@Z
    15E2A ?ReqQryOrder@Rust_CThostFtdcTraderApi@@QEAAHPEAUCThostFtdcQryOrderField@@H@Z
    15E2A ?ReqQryParkedOrder@Rust_CThostFtdcTraderApi@@QEAAHPEAUCThostFtdcQryParkedOrderField@@H@Z
    15E2A ?ReqQryParkedOrderAction@Rust_CThostFtdcTraderApi@@QEAAHPEAUCThostFtdcQryParkedOrderActionField@@H@Z
    15E2A ?ReqQryProduct@Rust_CThostFtdcTraderApi@@QEAAHPEAUCThostFtdcQryProductField@@H@Z
    15E2A ?ReqQryProductExchRate@Rust_CThostFtdcTraderApi@@QEAAHPEAUCThostFtdcQryProductExchRateField@@H@Z
    15E2A ?ReqQryProductGroup@Rust_CThostFtdcTraderApi@@QEAAHPEAUCThostFtdcQryProductGroupField@@H@Z
    15E2A ?ReqQryQuote@Rust_CThostFtdcTraderApi@@QEAAHPEAUCThostFtdcQryQuoteField@@H@Z
    15E2A ?ReqQryRiskSettleInvstPosition@Rust_CThostFtdcTraderApi@@QEAAHPEAUCThostFtdcQryRiskSettleInvstPositionField@@H@Z
    15E2A ?ReqQryRiskSettleProductStatus@Rust_CThostFtdcTraderApi@@QEAAHPEAUCThostFtdcQryRiskSettleProductStatusField@@H@Z
    15E2A ?ReqQrySecAgentACIDMap@Rust_CThostFtdcTraderApi@@QEAAHPEAUCThostFtdcQrySecAgentACIDMapField@@H@Z
    15E2A ?ReqQrySecAgentCheckMode@Rust_CThostFtdcTraderApi@@QEAAHPEAUCThostFtdcQrySecAgentCheckModeField@@H@Z
    15E2A ?ReqQrySecAgentTradeInfo@Rust_CThostFtdcTraderApi@@QEAAHPEAUCThostFtdcQrySecAgentTradeInfoField@@H@Z
    15E2A ?ReqQrySecAgentTradingAccount@Rust_CThostFtdcTraderApi@@QEAAHPEAUCThostFtdcQryTradingAccountField@@H@Z
    15E2A ?ReqQrySettlementInfo@Rust_CThostFtdcTraderApi@@QEAAHPEAUCThostFtdcQrySettlementInfoField@@H@Z
    15E2A ?ReqQrySettlementInfoConfirm@Rust_CThostFtdcTraderApi@@QEAAHPEAUCThostFtdcQrySettlementInfoConfirmField@@H@Z
    15E2A ?ReqQryTrade@Rust_CThostFtdcTraderApi@@QEAAHPEAUCThostFtdcQryTradeField@@H@Z
    15E2A ?ReqQryTradingAccount@Rust_CThostFtdcTraderApi@@QEAAHPEAUCThostFtdcQryTradingAccountField@@H@Z
    15E2A ?ReqQryTradingCode@Rust_CThostFtdcTraderApi@@QEAAHPEAUCThostFtdcQryTradingCodeField@@H@Z
    15E2A ?ReqQryTradingNotice@Rust_CThostFtdcTraderApi@@QEAAHPEAUCThostFtdcQryTradingNoticeField@@H@Z
    15E2A ?ReqQryTransferBank@Rust_CThostFtdcTraderApi@@QEAAHPEAUCThostFtdcQryTransferBankField@@H@Z
    15E2A ?ReqQryTransferSerial@Rust_CThostFtdcTraderApi@@QEAAHPEAUCThostFtdcQryTransferSerialField@@H@Z
    15E2A ?ReqQueryBankAccountMoneyByFuture@Rust_CThostFtdcTraderApi@@QEAAHPEAUCThostFtdcReqQueryAccountField@@H@Z
    15E2A ?ReqQueryCFMMCTradingAccountToken@Rust_CThostFtdcTraderApi@@QEAAHPEAUCThostFtdcQueryCFMMCTradingAccountTokenField@@H@Z
    15E2A ?ReqQuoteAction@Rust_CThostFtdcTraderApi@@QEAAHPEAUCThostFtdcInputQuoteActionField@@H@Z
    15E2A ?ReqQuoteInsert@Rust_CThostFtdcTraderApi@@QEAAHPEAUCThostFtdcInputQuoteField@@H@Z
    15E2A ?ReqRemoveParkedOrder@Rust_CThostFtdcTraderApi@@QEAAHPEAUCThostFtdcRemoveParkedOrderField@@H@Z
    15E2A ?ReqRemoveParkedOrderAction@Rust_CThostFtdcTraderApi@@QEAAHPEAUCThostFtdcRemoveParkedOrderActionField@@H@Z
    15E2A ?ReqSettlementInfoConfirm@Rust_CThostFtdcTraderApi@@QEAAHPEAUCThostFtdcSettlementInfoConfirmField@@H@Z
    15E2A ?ReqTradingAccountPasswordUpdate@Rust_CThostFtdcTraderApi@@QEAAHPEAUCThostFtdcTradingAccountPasswordUpdateField@@H@Z
    15E2A ?ReqUserAuthMethod@Rust_CThostFtdcTraderApi@@QEAAHPEAUCThostFtdcReqUserAuthMethodField@@H@Z
    15E2A ?ReqUserLogin@Rust_CThostFtdcMdApi@@QEAAHPEAUCThostFtdcReqUserLoginField@@H@Z
    15E2A ?ReqUserLogin@Rust_CThostFtdcTraderApi@@QEAAHPEAUCThostFtdcReqUserLoginField@@H@Z
    15E2A ?ReqUserLoginWithCaptcha@Rust_CThostFtdcTraderApi@@QEAAHPEAUCThostFtdcReqUserLoginWithCaptchaField@@H@Z
    15E2A ?ReqUserLoginWithOTP@Rust_CThostFtdcTraderApi@@QEAAHPEAUCThostFtdcReqUserLoginWithOTPField@@H@Z
    15E2A ?ReqUserLoginWithText@Rust_CThostFtdcTraderApi@@QEAAHPEAUCThostFtdcReqUserLoginWithTextField@@H@Z
    15E2A ?ReqUserLogout@Rust_CThostFtdcMdApi@@QEAAHPEAUCThostFtdcUserLogoutField@@H@Z
    15E2A ?ReqUserLogout@Rust_CThostFtdcTraderApi@@QEAAHPEAUCThostFtdcUserLogoutField@@H@Z
    15E2A ?ReqUserPasswordUpdate@Rust_CThostFtdcTraderApi@@QEAAHPEAUCThostFtdcUserPasswordUpdateField@@H@Z
    15E2A ?SubmitUserSystemInfo@Rust_CThostFtdcTraderApi@@QEAAHPEAUCThostFtdcUserSystemInfoField@@@Z
    15E2A ?SubscribeForQuoteRsp@Rust_CThostFtdcMdApi@@QEAAHQEAPEADH@Z
    15E2A ?SubscribeMarketData@Rust_CThostFtdcMdApi@@QEAAHQEAPEADH@Z
    15E2A ?SubscribePrivateTopic@Rust_CThostFtdcTraderApi@@QEAAXW4THOST_TE_RESUME_TYPE@@@Z
    15E2A ?SubscribePublicTopic@Rust_CThostFtdcTraderApi@@QEAAXW4THOST_TE_RESUME_TYPE@@@Z
    15E2A ?UnSubscribeForQuoteRsp@Rust_CThostFtdcMdApi@@QEAAHQEAPEADH@Z
    15E2A ?UnSubscribeMarketData@Rust_CThostFtdcMdApi@@QEAAHQEAPEADH@Z

Archive member name at B07C: /               
62FCAF8B time/date Wed Aug 17 17:06:19 2022
         uid
         gid
       0 mode
    ACDE size
correct header end

    1 offsets

        1    15E2A

    433 public symbols

        1 ??0CThostFtdcMdSpi@@QEAA@XZ
        1 ??0CThostFtdcTraderSpi@@QEAA@XZ
        1 ??0Rust_CThostFtdcMdApi@@QEAA@PEAVCThostFtdcMdApi@@@Z
        1 ??0Rust_CThostFtdcMdSpi@@QEAA@PEAX@Z
        1 ??0Rust_CThostFtdcTraderApi@@QEAA@PEAVCThostFtdcTraderApi@@@Z
        1 ??0Rust_CThostFtdcTraderSpi@@QEAA@PEAX@Z
        1 ??1Rust_CThostFtdcMdApi@@QEAA@XZ
        1 ??1Rust_CThostFtdcMdSpi@@QEAA@XZ
        1 ??1Rust_CThostFtdcTraderApi@@QEAA@XZ
        1 ??1Rust_CThostFtdcTraderSpi@@QEAA@XZ
        1 ??_7CThostFtdcMdSpi@@6B@
        1 ??_7CThostFtdcTraderSpi@@6B@
        1 ??_7Rust_CThostFtdcMdSpi@@6B@
        1 ??_7Rust_CThostFtdcTraderSpi@@6B@
        1 ??_R0?AVCThostFtdcMdSpi@@@8
        1 ??_R0?AVCThostFtdcTraderSpi@@@8
        1 ??_R0?AVRust_CThostFtdcMdSpi@@@8
        1 ??_R0?AVRust_CThostFtdcTraderSpi@@@8
        1 ??_R1A@?0A@EA@CThostFtdcMdSpi@@8
        1 ??_R1A@?0A@EA@CThostFtdcTraderSpi@@8
        1 ??_R1A@?0A@EA@Rust_CThostFtdcMdSpi@@8
        1 ??_R1A@?0A@EA@Rust_CThostFtdcTraderSpi@@8
        1 ??_R1A@?0A@EN@CThostFtdcMdSpi@@8
        1 ??_R1A@?0A@EN@CThostFtdcTraderSpi@@8
        1 ??_R2CThostFtdcMdSpi@@8
        1 ??_R2CThostFtdcTraderSpi@@8
        1 ??_R2Rust_CThostFtdcMdSpi@@8
        1 ??_R2Rust_CThostFtdcTraderSpi@@8
        1 ??_R3CThostFtdcMdSpi@@8
        1 ??_R3CThostFtdcTraderSpi@@8
        1 ??_R3Rust_CThostFtdcMdSpi@@8
        1 ??_R3Rust_CThostFtdcTraderSpi@@8
        1 ??_R4CThostFtdcMdSpi@@6B@
        1 ??_R4CThostFtdcTraderSpi@@6B@
        1 ??_R4Rust_CThostFtdcMdSpi@@6B@
        1 ??_R4Rust_CThostFtdcTraderSpi@@6B@
        1 ?GetTradingDay@Rust_CThostFtdcMdApi@@QEAAPEBDXZ
        1 ?GetTradingDay@Rust_CThostFtdcTraderApi@@QEAAPEBDXZ
        1 ?Init@Rust_CThostFtdcMdApi@@QEAAXXZ
        1 ?Init@Rust_CThostFtdcTraderApi@@QEAAXXZ
        1 ?Join@Rust_CThostFtdcMdApi@@QEAAHXZ
        1 ?Join@Rust_CThostFtdcTraderApi@@QEAAHXZ
        1 ?OnErrRtnBankToFutureByFuture@CThostFtdcTraderSpi@@UEAAXPEAUCThostFtdcReqTransferField@@PEAUCThostFtdcRspInfoField@@@Z
        1 ?OnErrRtnBankToFutureByFuture@Rust_CThostFtdcTraderSpi@@UEAAXPEAUCThostFtdcReqTransferField@@PEAUCThostFtdcRspInfoField@@@Z
        1 ?OnErrRtnBatchOrderAction@CThostFtdcTraderSpi@@UEAAXPEAUCThostFtdcBatchOrderActionField@@PEAUCThostFtdcRspInfoField@@@Z
        1 ?OnErrRtnBatchOrderAction@Rust_CThostFtdcTraderSpi@@UEAAXPEAUCThostFtdcBatchOrderActionField@@PEAUCThostFtdcRspInfoField@@@Z
        1 ?OnErrRtnCombActionInsert@CThostFtdcTraderSpi@@UEAAXPEAUCThostFtdcInputCombActionField@@PEAUCThostFtdcRspInfoField@@@Z
        1 ?OnErrRtnCombActionInsert@Rust_CThostFtdcTraderSpi@@UEAAXPEAUCThostFtdcInputCombActionField@@PEAUCThostFtdcRspInfoField@@@Z
        1 ?OnErrRtnExecOrderAction@CThostFtdcTraderSpi@@UEAAXPEAUCThostFtdcExecOrderActionField@@PEAUCThostFtdcRspInfoField@@@Z
        1 ?OnErrRtnExecOrderAction@Rust_CThostFtdcTraderSpi@@UEAAXPEAUCThostFtdcExecOrderActionField@@PEAUCThostFtdcRspInfoField@@@Z
        1 ?OnErrRtnExecOrderInsert@CThostFtdcTraderSpi@@UEAAXPEAUCThostFtdcInputExecOrderField@@PEAUCThostFtdcRspInfoField@@@Z
        1 ?OnErrRtnExecOrderInsert@Rust_CThostFtdcTraderSpi@@UEAAXPEAUCThostFtdcInputExecOrderField@@PEAUCThostFtdcRspInfoField@@@Z
        1 ?OnErrRtnForQuoteInsert@CThostFtdcTraderSpi@@UEAAXPEAUCThostFtdcInputForQuoteField@@PEAUCThostFtdcRspInfoField@@@Z
        1 ?OnErrRtnForQuoteInsert@Rust_CThostFtdcTraderSpi@@UEAAXPEAUCThostFtdcInputForQuoteField@@PEAUCThostFtdcRspInfoField@@@Z
        1 ?OnErrRtnFutureToBankByFuture@CThostFtdcTraderSpi@@UEAAXPEAUCThostFtdcReqTransferField@@PEAUCThostFtdcRspInfoField@@@Z
        1 ?OnErrRtnFutureToBankByFuture@Rust_CThostFtdcTraderSpi@@UEAAXPEAUCThostFtdcReqTransferField@@PEAUCThostFtdcRspInfoField@@@Z
        1 ?OnErrRtnOptionSelfCloseAction@CThostFtdcTraderSpi@@UEAAXPEAUCThostFtdcOptionSelfCloseActionField@@PEAUCThostFtdcRspInfoField@@@Z
        1 ?OnErrRtnOptionSelfCloseAction@Rust_CThostFtdcTraderSpi@@UEAAXPEAUCThostFtdcOptionSelfCloseActionField@@PEAUCThostFtdcRspInfoField@@@Z
        1 ?OnErrRtnOptionSelfCloseInsert@CThostFtdcTraderSpi@@UEAAXPEAUCThostFtdcInputOptionSelfCloseField@@PEAUCThostFtdcRspInfoField@@@Z
        1 ?OnErrRtnOptionSelfCloseInsert@Rust_CThostFtdcTraderSpi@@UEAAXPEAUCThostFtdcInputOptionSelfCloseField@@PEAUCThostFtdcRspInfoField@@@Z
        1 ?OnErrRtnOrderAction@CThostFtdcTraderSpi@@UEAAXPEAUCThostFtdcOrderActionField@@PEAUCThostFtdcRspInfoField@@@Z
        1 ?OnErrRtnOrderAction@Rust_CThostFtdcTraderSpi@@UEAAXPEAUCThostFtdcOrderActionField@@PEAUCThostFtdcRspInfoField@@@Z
        1 ?OnErrRtnOrderInsert@CThostFtdcTraderSpi@@UEAAXPEAUCThostFtdcInputOrderField@@PEAUCThostFtdcRspInfoField@@@Z
        1 ?OnErrRtnOrderInsert@Rust_CThostFtdcTraderSpi@@UEAAXPEAUCThostFtdcInputOrderField@@PEAUCThostFtdcRspInfoField@@@Z
        1 ?OnErrRtnQueryBankBalanceByFuture@CThostFtdcTraderSpi@@UEAAXPEAUCThostFtdcReqQueryAccountField@@PEAUCThostFtdcRspInfoField@@@Z
        1 ?OnErrRtnQueryBankBalanceByFuture@Rust_CThostFtdcTraderSpi@@UEAAXPEAUCThostFtdcReqQueryAccountField@@PEAUCThostFtdcRspInfoField@@@Z
        1 ?OnErrRtnQuoteAction@CThostFtdcTraderSpi@@UEAAXPEAUCThostFtdcQuoteActionField@@PEAUCThostFtdcRspInfoField@@@Z
        1 ?OnErrRtnQuoteAction@Rust_CThostFtdcTraderSpi@@UEAAXPEAUCThostFtdcQuoteActionField@@PEAUCThostFtdcRspInfoField@@@Z
        1 ?OnErrRtnQuoteInsert@CThostFtdcTraderSpi@@UEAAXPEAUCThostFtdcInputQuoteField@@PEAUCThostFtdcRspInfoField@@@Z
        1 ?OnErrRtnQuoteInsert@Rust_CThostFtdcTraderSpi@@UEAAXPEAUCThostFtdcInputQuoteField@@PEAUCThostFtdcRspInfoField@@@Z
        1 ?OnErrRtnRepealBankToFutureByFutureManual@CThostFtdcTraderSpi@@UEAAXPEAUCThostFtdcReqRepealField@@PEAUCThostFtdcRspInfoField@@@Z
        1 ?OnErrRtnRepealBankToFutureByFutureManual@Rust_CThostFtdcTraderSpi@@UEAAXPEAUCThostFtdcReqRepealField@@PEAUCThostFtdcRspInfoField@@@Z
        1 ?OnErrRtnRepealFutureToBankByFutureManual@CThostFtdcTraderSpi@@UEAAXPEAUCThostFtdcReqRepealField@@PEAUCThostFtdcRspInfoField@@@Z
        1 ?OnErrRtnRepealFutureToBankByFutureManual@Rust_CThostFtdcTraderSpi@@UEAAXPEAUCThostFtdcReqRepealField@@PEAUCThostFtdcRspInfoField@@@Z
        1 ?OnFrontConnected@CThostFtdcMdSpi@@UEAAXXZ
        1 ?OnFrontConnected@CThostFtdcTraderSpi@@UEAAXXZ
        1 ?OnFrontConnected@Rust_CThostFtdcMdSpi@@UEAAXXZ
        1 ?OnFrontConnected@Rust_CThostFtdcTraderSpi@@UEAAXXZ
        1 ?OnFrontDisconnected@CThostFtdcMdSpi@@UEAAXH@Z
        1 ?OnFrontDisconnected@CThostFtdcTraderSpi@@UEAAXH@Z
        1 ?OnFrontDisconnected@Rust_CThostFtdcMdSpi@@UEAAXH@Z
        1 ?OnFrontDisconnected@Rust_CThostFtdcTraderSpi@@UEAAXH@Z
        1 ?OnHeartBeatWarning@CThostFtdcMdSpi@@UEAAXH@Z
        1 ?OnHeartBeatWarning@CThostFtdcTraderSpi@@UEAAXH@Z
        1 ?OnHeartBeatWarning@Rust_CThostFtdcMdSpi@@UEAAXH@Z
        1 ?OnHeartBeatWarning@Rust_CThostFtdcTraderSpi@@UEAAXH@Z
        1 ?OnRspAuthenticate@CThostFtdcTraderSpi@@UEAAXPEAUCThostFtdcRspAuthenticateField@@PEAUCThostFtdcRspInfoField@@H_N@Z
        1 ?OnRspAuthenticate@Rust_CThostFtdcTraderSpi@@UEAAXPEAUCThostFtdcRspAuthenticateField@@PEAUCThostFtdcRspInfoField@@H_N@Z
        1 ?OnRspBatchOrderAction@CThostFtdcTraderSpi@@UEAAXPEAUCThostFtdcInputBatchOrderActionField@@PEAUCThostFtdcRspInfoField@@H_N@Z
        1 ?OnRspBatchOrderAction@Rust_CThostFtdcTraderSpi@@UEAAXPEAUCThostFtdcInputBatchOrderActionField@@PEAUCThostFtdcRspInfoField@@H_N@Z
        1 ?OnRspCombActionInsert@CThostFtdcTraderSpi@@UEAAXPEAUCThostFtdcInputCombActionField@@PEAUCThostFtdcRspInfoField@@H_N@Z
        1 ?OnRspCombActionInsert@Rust_CThostFtdcTraderSpi@@UEAAXPEAUCThostFtdcInputCombActionField@@PEAUCThostFtdcRspInfoField@@H_N@Z
        1 ?OnRspError@CThostFtdcMdSpi@@UEAAXPEAUCThostFtdcRspInfoField@@H_N@Z
        1 ?OnRspError@CThostFtdcTraderSpi@@UEAAXPEAUCThostFtdcRspInfoField@@H_N@Z
        1 ?OnRspError@Rust_CThostFtdcMdSpi@@UEAAXPEAUCThostFtdcRspInfoField@@H_N@Z
        1 ?OnRspError@Rust_CThostFtdcTraderSpi@@UEAAXPEAUCThostFtdcRspInfoField@@H_N@Z
        1 ?OnRspExecOrderAction@CThostFtdcTraderSpi@@UEAAXPEAUCThostFtdcInputExecOrderActionField@@PEAUCThostFtdcRspInfoField@@H_N@Z
        1 ?OnRspExecOrderAction@Rust_CThostFtdcTraderSpi@@UEAAXPEAUCThostFtdcInputExecOrderActionField@@PEAUCThostFtdcRspInfoField@@H_N@Z
        1 ?OnRspExecOrderInsert@CThostFtdcTraderSpi@@UEAAXPEAUCThostFtdcInputExecOrderField@@PEAUCThostFtdcRspInfoField@@H_N@Z
        1 ?OnRspExecOrderInsert@Rust_CThostFtdcTraderSpi@@UEAAXPEAUCThostFtdcInputExecOrderField@@PEAUCThostFtdcRspInfoField@@H_N@Z
        1 ?OnRspForQuoteInsert@CThostFtdcTraderSpi@@UEAAXPEAUCThostFtdcInputForQuoteField@@PEAUCThostFtdcRspInfoField@@H_N@Z
        1 ?OnRspForQuoteInsert@Rust_CThostFtdcTraderSpi@@UEAAXPEAUCThostFtdcInputForQuoteField@@PEAUCThostFtdcRspInfoField@@H_N@Z
        1 ?OnRspFromBankToFutureByFuture@CThostFtdcTraderSpi@@UEAAXPEAUCThostFtdcReqTransferField@@PEAUCThostFtdcRspInfoField@@H_N@Z
        1 ?OnRspFromBankToFutureByFuture@Rust_CThostFtdcTraderSpi@@UEAAXPEAUCThostFtdcReqTransferField@@PEAUCThostFtdcRspInfoField@@H_N@Z
        1 ?OnRspFromFutureToBankByFuture@CThostFtdcTraderSpi@@UEAAXPEAUCThostFtdcReqTransferField@@PEAUCThostFtdcRspInfoField@@H_N@Z
        1 ?OnRspFromFutureToBankByFuture@Rust_CThostFtdcTraderSpi@@UEAAXPEAUCThostFtdcReqTransferField@@PEAUCThostFtdcRspInfoField@@H_N@Z
        1 ?OnRspGenUserCaptcha@CThostFtdcTraderSpi@@UEAAXPEAUCThostFtdcRspGenUserCaptchaField@@PEAUCThostFtdcRspInfoField@@H_N@Z
        1 ?OnRspGenUserCaptcha@Rust_CThostFtdcTraderSpi@@UEAAXPEAUCThostFtdcRspGenUserCaptchaField@@PEAUCThostFtdcRspInfoField@@H_N@Z
        1 ?OnRspGenUserText@CThostFtdcTraderSpi@@UEAAXPEAUCThostFtdcRspGenUserTextField@@PEAUCThostFtdcRspInfoField@@H_N@Z
        1 ?OnRspGenUserText@Rust_CThostFtdcTraderSpi@@UEAAXPEAUCThostFtdcRspGenUserTextField@@PEAUCThostFtdcRspInfoField@@H_N@Z
        1 ?OnRspOptionSelfCloseAction@CThostFtdcTraderSpi@@UEAAXPEAUCThostFtdcInputOptionSelfCloseActionField@@PEAUCThostFtdcRspInfoField@@H_N@Z
        1 ?OnRspOptionSelfCloseAction@Rust_CThostFtdcTraderSpi@@UEAAXPEAUCThostFtdcInputOptionSelfCloseActionField@@PEAUCThostFtdcRspInfoField@@H_N@Z
        1 ?OnRspOptionSelfCloseInsert@CThostFtdcTraderSpi@@UEAAXPEAUCThostFtdcInputOptionSelfCloseField@@PEAUCThostFtdcRspInfoField@@H_N@Z
        1 ?OnRspOptionSelfCloseInsert@Rust_CThostFtdcTraderSpi@@UEAAXPEAUCThostFtdcInputOptionSelfCloseField@@PEAUCThostFtdcRspInfoField@@H_N@Z
        1 ?OnRspOrderAction@CThostFtdcTraderSpi@@UEAAXPEAUCThostFtdcInputOrderActionField@@PEAUCThostFtdcRspInfoField@@H_N@Z
        1 ?OnRspOrderAction@Rust_CThostFtdcTraderSpi@@UEAAXPEAUCThostFtdcInputOrderActionField@@PEAUCThostFtdcRspInfoField@@H_N@Z
        1 ?OnRspOrderInsert@CThostFtdcTraderSpi@@UEAAXPEAUCThostFtdcInputOrderField@@PEAUCThostFtdcRspInfoField@@H_N@Z
        1 ?OnRspOrderInsert@Rust_CThostFtdcTraderSpi@@UEAAXPEAUCThostFtdcInputOrderField@@PEAUCThostFtdcRspInfoField@@H_N@Z
        1 ?OnRspParkedOrderAction@CThostFtdcTraderSpi@@UEAAXPEAUCThostFtdcParkedOrderActionField@@PEAUCThostFtdcRspInfoField@@H_N@Z
        1 ?OnRspParkedOrderAction@Rust_CThostFtdcTraderSpi@@UEAAXPEAUCThostFtdcParkedOrderActionField@@PEAUCThostFtdcRspInfoField@@H_N@Z
        1 ?OnRspParkedOrderInsert@CThostFtdcTraderSpi@@UEAAXPEAUCThostFtdcParkedOrderField@@PEAUCThostFtdcRspInfoField@@H_N@Z
        1 ?OnRspParkedOrderInsert@Rust_CThostFtdcTraderSpi@@UEAAXPEAUCThostFtdcParkedOrderField@@PEAUCThostFtdcRspInfoField@@H_N@Z
        1 ?OnRspQryAccountregister@CThostFtdcTraderSpi@@UEAAXPEAUCThostFtdcAccountregisterField@@PEAUCThostFtdcRspInfoField@@H_N@Z
        1 ?OnRspQryAccountregister@Rust_CThostFtdcTraderSpi@@UEAAXPEAUCThostFtdcAccountregisterField@@PEAUCThostFtdcRspInfoField@@H_N@Z
        1 ?OnRspQryBrokerTradingAlgos@CThostFtdcTraderSpi@@UEAAXPEAUCThostFtdcBrokerTradingAlgosField@@PEAUCThostFtdcRspInfoField@@H_N@Z
        1 ?OnRspQryBrokerTradingAlgos@Rust_CThostFtdcTraderSpi@@UEAAXPEAUCThostFtdcBrokerTradingAlgosField@@PEAUCThostFtdcRspInfoField@@H_N@Z
        1 ?OnRspQryBrokerTradingParams@CThostFtdcTraderSpi@@UEAAXPEAUCThostFtdcBrokerTradingParamsField@@PEAUCThostFtdcRspInfoField@@H_N@Z
        1 ?OnRspQryBrokerTradingParams@Rust_CThostFtdcTraderSpi@@UEAAXPEAUCThostFtdcBrokerTradingParamsField@@PEAUCThostFtdcRspInfoField@@H_N@Z
        1 ?OnRspQryCFMMCTradingAccountKey@CThostFtdcTraderSpi@@UEAAXPEAUCThostFtdcCFMMCTradingAccountKeyField@@PEAUCThostFtdcRspInfoField@@H_N@Z
        1 ?OnRspQryCFMMCTradingAccountKey@Rust_CThostFtdcTraderSpi@@UEAAXPEAUCThostFtdcCFMMCTradingAccountKeyField@@PEAUCThostFtdcRspInfoField@@H_N@Z
        1 ?OnRspQryClassifiedInstrument@CThostFtdcTraderSpi@@UEAAXPEAUCThostFtdcInstrumentField@@PEAUCThostFtdcRspInfoField@@H_N@Z
        1 ?OnRspQryClassifiedInstrument@Rust_CThostFtdcTraderSpi@@UEAAXPEAUCThostFtdcInstrumentField@@PEAUCThostFtdcRspInfoField@@H_N@Z
        1 ?OnRspQryCombAction@CThostFtdcTraderSpi@@UEAAXPEAUCThostFtdcCombActionField@@PEAUCThostFtdcRspInfoField@@H_N@Z
        1 ?OnRspQryCombAction@Rust_CThostFtdcTraderSpi@@UEAAXPEAUCThostFtdcCombActionField@@PEAUCThostFtdcRspInfoField@@H_N@Z
        1 ?OnRspQryCombInstrumentGuard@CThostFtdcTraderSpi@@UEAAXPEAUCThostFtdcCombInstrumentGuardField@@PEAUCThostFtdcRspInfoField@@H_N@Z
        1 ?OnRspQryCombInstrumentGuard@Rust_CThostFtdcTraderSpi@@UEAAXPEAUCThostFtdcCombInstrumentGuardField@@PEAUCThostFtdcRspInfoField@@H_N@Z
        1 ?OnRspQryCombPromotionParam@CThostFtdcTraderSpi@@UEAAXPEAUCThostFtdcCombPromotionParamField@@PEAUCThostFtdcRspInfoField@@H_N@Z
        1 ?OnRspQryCombPromotionParam@Rust_CThostFtdcTraderSpi@@UEAAXPEAUCThostFtdcCombPromotionParamField@@PEAUCThostFtdcRspInfoField@@H_N@Z
        1 ?OnRspQryContractBank@CThostFtdcTraderSpi@@UEAAXPEAUCThostFtdcContractBankField@@PEAUCThostFtdcRspInfoField@@H_N@Z
        1 ?OnRspQryContractBank@Rust_CThostFtdcTraderSpi@@UEAAXPEAUCThostFtdcContractBankField@@PEAUCThostFtdcRspInfoField@@H_N@Z
        1 ?OnRspQryDepthMarketData@CThostFtdcTraderSpi@@UEAAXPEAUCThostFtdcDepthMarketDataField@@PEAUCThostFtdcRspInfoField@@H_N@Z
        1 ?OnRspQryDepthMarketData@Rust_CThostFtdcTraderSpi@@UEAAXPEAUCThostFtdcDepthMarketDataField@@PEAUCThostFtdcRspInfoField@@H_N@Z
        1 ?OnRspQryEWarrantOffset@CThostFtdcTraderSpi@@UEAAXPEAUCThostFtdcEWarrantOffsetField@@PEAUCThostFtdcRspInfoField@@H_N@Z
        1 ?OnRspQryEWarrantOffset@Rust_CThostFtdcTraderSpi@@UEAAXPEAUCThostFtdcEWarrantOffsetField@@PEAUCThostFtdcRspInfoField@@H_N@Z
        1 ?OnRspQryExchange@CThostFtdcTraderSpi@@UEAAXPEAUCThostFtdcExchangeField@@PEAUCThostFtdcRspInfoField@@H_N@Z
        1 ?OnRspQryExchange@Rust_CThostFtdcTraderSpi@@UEAAXPEAUCThostFtdcExchangeField@@PEAUCThostFtdcRspInfoField@@H_N@Z
        1 ?OnRspQryExchangeMarginRate@CThostFtdcTraderSpi@@UEAAXPEAUCThostFtdcExchangeMarginRateField@@PEAUCThostFtdcRspInfoField@@H_N@Z
        1 ?OnRspQryExchangeMarginRate@Rust_CThostFtdcTraderSpi@@UEAAXPEAUCThostFtdcExchangeMarginRateField@@PEAUCThostFtdcRspInfoField@@H_N@Z
        1 ?OnRspQryExchangeMarginRateAdjust@CThostFtdcTraderSpi@@UEAAXPEAUCThostFtdcExchangeMarginRateAdjustField@@PEAUCThostFtdcRspInfoField@@H_N@Z
        1 ?OnRspQryExchangeMarginRateAdjust@Rust_CThostFtdcTraderSpi@@UEAAXPEAUCThostFtdcExchangeMarginRateAdjustField@@PEAUCThostFtdcRspInfoField@@H_N@Z
        1 ?OnRspQryExchangeRate@CThostFtdcTraderSpi@@UEAAXPEAUCThostFtdcExchangeRateField@@PEAUCThostFtdcRspInfoField@@H_N@Z
        1 ?OnRspQryExchangeRate@Rust_CThostFtdcTraderSpi@@UEAAXPEAUCThostFtdcExchangeRateField@@PEAUCThostFtdcRspInfoField@@H_N@Z
        1 ?OnRspQryExecOrder@CThostFtdcTraderSpi@@UEAAXPEAUCThostFtdcExecOrderField@@PEAUCThostFtdcRspInfoField@@H_N@Z
        1 ?OnRspQryExecOrder@Rust_CThostFtdcTraderSpi@@UEAAXPEAUCThostFtdcExecOrderField@@PEAUCThostFtdcRspInfoField@@H_N@Z
        1 ?OnRspQryForQuote@CThostFtdcTraderSpi@@UEAAXPEAUCThostFtdcForQuoteField@@PEAUCThostFtdcRspInfoField@@H_N@Z
        1 ?OnRspQryForQuote@Rust_CThostFtdcTraderSpi@@UEAAXPEAUCThostFtdcForQuoteField@@PEAUCThostFtdcRspInfoField@@H_N@Z
        1 ?OnRspQryInstrument@CThostFtdcTraderSpi@@UEAAXPEAUCThostFtdcInstrumentField@@PEAUCThostFtdcRspInfoField@@H_N@Z
        1 ?OnRspQryInstrument@Rust_CThostFtdcTraderSpi@@UEAAXPEAUCThostFtdcInstrumentField@@PEAUCThostFtdcRspInfoField@@H_N@Z
        1 ?OnRspQryInstrumentCommissionRate@CThostFtdcTraderSpi@@UEAAXPEAUCThostFtdcInstrumentCommissionRateField@@PEAUCThostFtdcRspInfoField@@H_N@Z
        1 ?OnRspQryInstrumentCommissionRate@Rust_CThostFtdcTraderSpi@@UEAAXPEAUCThostFtdcInstrumentCommissionRateField@@PEAUCThostFtdcRspInfoField@@H_N@Z
        1 ?OnRspQryInstrumentMarginRate@CThostFtdcTraderSpi@@UEAAXPEAUCThostFtdcInstrumentMarginRateField@@PEAUCThostFtdcRspInfoField@@H_N@Z
        1 ?OnRspQryInstrumentMarginRate@Rust_CThostFtdcTraderSpi@@UEAAXPEAUCThostFtdcInstrumentMarginRateField@@PEAUCThostFtdcRspInfoField@@H_N@Z
        1 ?OnRspQryInstrumentOrderCommRate@CThostFtdcTraderSpi@@UEAAXPEAUCThostFtdcInstrumentOrderCommRateField@@PEAUCThostFtdcRspInfoField@@H_N@Z
        1 ?OnRspQryInstrumentOrderCommRate@Rust_CThostFtdcTraderSpi@@UEAAXPEAUCThostFtdcInstrumentOrderCommRateField@@PEAUCThostFtdcRspInfoField@@H_N@Z
        1 ?OnRspQryInvestUnit@CThostFtdcTraderSpi@@UEAAXPEAUCThostFtdcInvestUnitField@@PEAUCThostFtdcRspInfoField@@H_N@Z
        1 ?OnRspQryInvestUnit@Rust_CThostFtdcTraderSpi@@UEAAXPEAUCThostFtdcInvestUnitField@@PEAUCThostFtdcRspInfoField@@H_N@Z
        1 ?OnRspQryInvestor@CThostFtdcTraderSpi@@UEAAXPEAUCThostFtdcInvestorField@@PEAUCThostFtdcRspInfoField@@H_N@Z
        1 ?OnRspQryInvestor@Rust_CThostFtdcTraderSpi@@UEAAXPEAUCThostFtdcInvestorField@@PEAUCThostFtdcRspInfoField@@H_N@Z
        1 ?OnRspQryInvestorPosition@CThostFtdcTraderSpi@@UEAAXPEAUCThostFtdcInvestorPositionField@@PEAUCThostFtdcRspInfoField@@H_N@Z
        1 ?OnRspQryInvestorPosition@Rust_CThostFtdcTraderSpi@@UEAAXPEAUCThostFtdcInvestorPositionField@@PEAUCThostFtdcRspInfoField@@H_N@Z
        1 ?OnRspQryInvestorPositionCombineDetail@CThostFtdcTraderSpi@@UEAAXPEAUCThostFtdcInvestorPositionCombineDetailField@@PEAUCThostFtdcRspInfoField@@H_N@Z
        1 ?OnRspQryInvestorPositionCombineDetail@Rust_CThostFtdcTraderSpi@@UEAAXPEAUCThostFtdcInvestorPositionCombineDetailField@@PEAUCThostFtdcRspInfoField@@H_N@Z
        1 ?OnRspQryInvestorPositionDetail@CThostFtdcTraderSpi@@UEAAXPEAUCThostFtdcInvestorPositionDetailField@@PEAUCThostFtdcRspInfoField@@H_N@Z
        1 ?OnRspQryInvestorPositionDetail@Rust_CThostFtdcTraderSpi@@UEAAXPEAUCThostFtdcInvestorPositionDetailField@@PEAUCThostFtdcRspInfoField@@H_N@Z
        1 ?OnRspQryInvestorProductGroupMargin@CThostFtdcTraderSpi@@UEAAXPEAUCThostFtdcInvestorProductGroupMarginField@@PEAUCThostFtdcRspInfoField@@H_N@Z
        1 ?OnRspQryInvestorProductGroupMargin@Rust_CThostFtdcTraderSpi@@UEAAXPEAUCThostFtdcInvestorProductGroupMarginField@@PEAUCThostFtdcRspInfoField@@H_N@Z
        1 ?OnRspQryMMInstrumentCommissionRate@CThostFtdcTraderSpi@@UEAAXPEAUCThostFtdcMMInstrumentCommissionRateField@@PEAUCThostFtdcRspInfoField@@H_N@Z
        1 ?OnRspQryMMInstrumentCommissionRate@Rust_CThostFtdcTraderSpi@@UEAAXPEAUCThostFtdcMMInstrumentCommissionRateField@@PEAUCThostFtdcRspInfoField@@H_N@Z
        1 ?OnRspQryMMOptionInstrCommRate@CThostFtdcTraderSpi@@UEAAXPEAUCThostFtdcMMOptionInstrCommRateField@@PEAUCThostFtdcRspInfoField@@H_N@Z
        1 ?OnRspQryMMOptionInstrCommRate@Rust_CThostFtdcTraderSpi@@UEAAXPEAUCThostFtdcMMOptionInstrCommRateField@@PEAUCThostFtdcRspInfoField@@H_N@Z
        1 ?OnRspQryMaxOrderVolume@CThostFtdcTraderSpi@@UEAAXPEAUCThostFtdcQryMaxOrderVolumeField@@PEAUCThostFtdcRspInfoField@@H_N@Z
        1 ?OnRspQryMaxOrderVolume@Rust_CThostFtdcTraderSpi@@UEAAXPEAUCThostFtdcQryMaxOrderVolumeField@@PEAUCThostFtdcRspInfoField@@H_N@Z
        1 ?OnRspQryMulticastInstrument@CThostFtdcMdSpi@@UEAAXPEAUCThostFtdcMulticastInstrumentField@@PEAUCThostFtdcRspInfoField@@H_N@Z
        1 ?OnRspQryMulticastInstrument@Rust_CThostFtdcMdSpi@@UEAAXPEAUCThostFtdcMulticastInstrumentField@@PEAUCThostFtdcRspInfoField@@H_N@Z
        1 ?OnRspQryNotice@CThostFtdcTraderSpi@@UEAAXPEAUCThostFtdcNoticeField@@PEAUCThostFtdcRspInfoField@@H_N@Z
        1 ?OnRspQryNotice@Rust_CThostFtdcTraderSpi@@UEAAXPEAUCThostFtdcNoticeField@@PEAUCThostFtdcRspInfoField@@H_N@Z
        1 ?OnRspQryOptionInstrCommRate@CThostFtdcTraderSpi@@UEAAXPEAUCThostFtdcOptionInstrCommRateField@@PEAUCThostFtdcRspInfoField@@H_N@Z
        1 ?OnRspQryOptionInstrCommRate@Rust_CThostFtdcTraderSpi@@UEAAXPEAUCThostFtdcOptionInstrCommRateField@@PEAUCThostFtdcRspInfoField@@H_N@Z
        1 ?OnRspQryOptionInstrTradeCost@CThostFtdcTraderSpi@@UEAAXPEAUCThostFtdcOptionInstrTradeCostField@@PEAUCThostFtdcRspInfoField@@H_N@Z
        1 ?OnRspQryOptionInstrTradeCost@Rust_CThostFtdcTraderSpi@@UEAAXPEAUCThostFtdcOptionInstrTradeCostField@@PEAUCThostFtdcRspInfoField@@H_N@Z
        1 ?OnRspQryOptionSelfClose@CThostFtdcTraderSpi@@UEAAXPEAUCThostFtdcOptionSelfCloseField@@PEAUCThostFtdcRspInfoField@@H_N@Z
        1 ?OnRspQryOptionSelfClose@Rust_CThostFtdcTraderSpi@@UEAAXPEAUCThostFtdcOptionSelfCloseField@@PEAUCThostFtdcRspInfoField@@H_N@Z
        1 ?OnRspQryOrder@CThostFtdcTraderSpi@@UEAAXPEAUCThostFtdcOrderField@@PEAUCThostFtdcRspInfoField@@H_N@Z
        1 ?OnRspQryOrder@Rust_CThostFtdcTraderSpi@@UEAAXPEAUCThostFtdcOrderField@@PEAUCThostFtdcRspInfoField@@H_N@Z
        1 ?OnRspQryParkedOrder@CThostFtdcTraderSpi@@UEAAXPEAUCThostFtdcParkedOrderField@@PEAUCThostFtdcRspInfoField@@H_N@Z
        1 ?OnRspQryParkedOrder@Rust_CThostFtdcTraderSpi@@UEAAXPEAUCThostFtdcParkedOrderField@@PEAUCThostFtdcRspInfoField@@H_N@Z
        1 ?OnRspQryParkedOrderAction@CThostFtdcTraderSpi@@UEAAXPEAUCThostFtdcParkedOrderActionField@@PEAUCThostFtdcRspInfoField@@H_N@Z
        1 ?OnRspQryParkedOrderAction@Rust_CThostFtdcTraderSpi@@UEAAXPEAUCThostFtdcParkedOrderActionField@@PEAUCThostFtdcRspInfoField@@H_N@Z
        1 ?OnRspQryProduct@CThostFtdcTraderSpi@@UEAAXPEAUCThostFtdcProductField@@PEAUCThostFtdcRspInfoField@@H_N@Z
        1 ?OnRspQryProduct@Rust_CThostFtdcTraderSpi@@UEAAXPEAUCThostFtdcProductField@@PEAUCThostFtdcRspInfoField@@H_N@Z
        1 ?OnRspQryProductExchRate@CThostFtdcTraderSpi@@UEAAXPEAUCThostFtdcProductExchRateField@@PEAUCThostFtdcRspInfoField@@H_N@Z
        1 ?OnRspQryProductExchRate@Rust_CThostFtdcTraderSpi@@UEAAXPEAUCThostFtdcProductExchRateField@@PEAUCThostFtdcRspInfoField@@H_N@Z
        1 ?OnRspQryProductGroup@CThostFtdcTraderSpi@@UEAAXPEAUCThostFtdcProductGroupField@@PEAUCThostFtdcRspInfoField@@H_N@Z
        1 ?OnRspQryProductGroup@Rust_CThostFtdcTraderSpi@@UEAAXPEAUCThostFtdcProductGroupField@@PEAUCThostFtdcRspInfoField@@H_N@Z
        1 ?OnRspQryQuote@CThostFtdcTraderSpi@@UEAAXPEAUCThostFtdcQuoteField@@PEAUCThostFtdcRspInfoField@@H_N@Z
        1 ?OnRspQryQuote@Rust_CThostFtdcTraderSpi@@UEAAXPEAUCThostFtdcQuoteField@@PEAUCThostFtdcRspInfoField@@H_N@Z
        1 ?OnRspQryRiskSettleInvstPosition@CThostFtdcTraderSpi@@UEAAXPEAUCThostFtdcRiskSettleInvstPositionField@@PEAUCThostFtdcRspInfoField@@H_N@Z
        1 ?OnRspQryRiskSettleInvstPosition@Rust_CThostFtdcTraderSpi@@UEAAXPEAUCThostFtdcRiskSettleInvstPositionField@@PEAUCThostFtdcRspInfoField@@H_N@Z
        1 ?OnRspQryRiskSettleProductStatus@CThostFtdcTraderSpi@@UEAAXPEAUCThostFtdcRiskSettleProductStatusField@@PEAUCThostFtdcRspInfoField@@H_N@Z
        1 ?OnRspQryRiskSettleProductStatus@Rust_CThostFtdcTraderSpi@@UEAAXPEAUCThostFtdcRiskSettleProductStatusField@@PEAUCThostFtdcRspInfoField@@H_N@Z
        1 ?OnRspQrySecAgentACIDMap@CThostFtdcTraderSpi@@UEAAXPEAUCThostFtdcSecAgentACIDMapField@@PEAUCThostFtdcRspInfoField@@H_N@Z
        1 ?OnRspQrySecAgentACIDMap@Rust_CThostFtdcTraderSpi@@UEAAXPEAUCThostFtdcSecAgentACIDMapField@@PEAUCThostFtdcRspInfoField@@H_N@Z
        1 ?OnRspQrySecAgentCheckMode@CThostFtdcTraderSpi@@UEAAXPEAUCThostFtdcSecAgentCheckModeField@@PEAUCThostFtdcRspInfoField@@H_N@Z
        1 ?OnRspQrySecAgentCheckMode@Rust_CThostFtdcTraderSpi@@UEAAXPEAUCThostFtdcSecAgentCheckModeField@@PEAUCThostFtdcRspInfoField@@H_N@Z
        1 ?OnRspQrySecAgentTradeInfo@CThostFtdcTraderSpi@@UEAAXPEAUCThostFtdcSecAgentTradeInfoField@@PEAUCThostFtdcRspInfoField@@H_N@Z
        1 ?OnRspQrySecAgentTradeInfo@Rust_CThostFtdcTraderSpi@@UEAAXPEAUCThostFtdcSecAgentTradeInfoField@@PEAUCThostFtdcRspInfoField@@H_N@Z
        1 ?OnRspQrySecAgentTradingAccount@CThostFtdcTraderSpi@@UEAAXPEAUCThostFtdcTradingAccountField@@PEAUCThostFtdcRspInfoField@@H_N@Z
        1 ?OnRspQrySecAgentTradingAccount@Rust_CThostFtdcTraderSpi@@UEAAXPEAUCThostFtdcTradingAccountField@@PEAUCThostFtdcRspInfoField@@H_N@Z
        1 ?OnRspQrySettlementInfo@CThostFtdcTraderSpi@@UEAAXPEAUCThostFtdcSettlementInfoField@@PEAUCThostFtdcRspInfoField@@H_N@Z
        1 ?OnRspQrySettlementInfo@Rust_CThostFtdcTraderSpi@@UEAAXPEAUCThostFtdcSettlementInfoField@@PEAUCThostFtdcRspInfoField@@H_N@Z
        1 ?OnRspQrySettlementInfoConfirm@CThostFtdcTraderSpi@@UEAAXPEAUCThostFtdcSettlementInfoConfirmField@@PEAUCThostFtdcRspInfoField@@H_N@Z
        1 ?OnRspQrySettlementInfoConfirm@Rust_CThostFtdcTraderSpi@@UEAAXPEAUCThostFtdcSettlementInfoConfirmField@@PEAUCThostFtdcRspInfoField@@H_N@Z
        1 ?OnRspQryTrade@CThostFtdcTraderSpi@@UEAAXPEAUCThostFtdcTradeField@@PEAUCThostFtdcRspInfoField@@H_N@Z
        1 ?OnRspQryTrade@Rust_CThostFtdcTraderSpi@@UEAAXPEAUCThostFtdcTradeField@@PEAUCThostFtdcRspInfoField@@H_N@Z
        1 ?OnRspQryTradingAccount@CThostFtdcTraderSpi@@UEAAXPEAUCThostFtdcTradingAccountField@@PEAUCThostFtdcRspInfoField@@H_N@Z
        1 ?OnRspQryTradingAccount@Rust_CThostFtdcTraderSpi@@UEAAXPEAUCThostFtdcTradingAccountField@@PEAUCThostFtdcRspInfoField@@H_N@Z
        1 ?OnRspQryTradingCode@CThostFtdcTraderSpi@@UEAAXPEAUCThostFtdcTradingCodeField@@PEAUCThostFtdcRspInfoField@@H_N@Z
        1 ?OnRspQryTradingCode@Rust_CThostFtdcTraderSpi@@UEAAXPEAUCThostFtdcTradingCodeField@@PEAUCThostFtdcRspInfoField@@H_N@Z
        1 ?OnRspQryTradingNotice@CThostFtdcTraderSpi@@UEAAXPEAUCThostFtdcTradingNoticeField@@PEAUCThostFtdcRspInfoField@@H_N@Z
        1 ?OnRspQryTradingNotice@Rust_CThostFtdcTraderSpi@@UEAAXPEAUCThostFtdcTradingNoticeField@@PEAUCThostFtdcRspInfoField@@H_N@Z
        1 ?OnRspQryTransferBank@CThostFtdcTraderSpi@@UEAAXPEAUCThostFtdcTransferBankField@@PEAUCThostFtdcRspInfoField@@H_N@Z
        1 ?OnRspQryTransferBank@Rust_CThostFtdcTraderSpi@@UEAAXPEAUCThostFtdcTransferBankField@@PEAUCThostFtdcRspInfoField@@H_N@Z
        1 ?OnRspQryTransferSerial@CThostFtdcTraderSpi@@UEAAXPEAUCThostFtdcTransferSerialField@@PEAUCThostFtdcRspInfoField@@H_N@Z
        1 ?OnRspQryTransferSerial@Rust_CThostFtdcTraderSpi@@UEAAXPEAUCThostFtdcTransferSerialField@@PEAUCThostFtdcRspInfoField@@H_N@Z
        1 ?OnRspQueryBankAccountMoneyByFuture@CThostFtdcTraderSpi@@UEAAXPEAUCThostFtdcReqQueryAccountField@@PEAUCThostFtdcRspInfoField@@H_N@Z
        1 ?OnRspQueryBankAccountMoneyByFuture@Rust_CThostFtdcTraderSpi@@UEAAXPEAUCThostFtdcReqQueryAccountField@@PEAUCThostFtdcRspInfoField@@H_N@Z
        1 ?OnRspQueryCFMMCTradingAccountToken@CThostFtdcTraderSpi@@UEAAXPEAUCThostFtdcQueryCFMMCTradingAccountTokenField@@PEAUCThostFtdcRspInfoField@@H_N@Z
        1 ?OnRspQueryCFMMCTradingAccountToken@Rust_CThostFtdcTraderSpi@@UEAAXPEAUCThostFtdcQueryCFMMCTradingAccountTokenField@@PEAUCThostFtdcRspInfoField@@H_N@Z
        1 ?OnRspQuoteAction@CThostFtdcTraderSpi@@UEAAXPEAUCThostFtdcInputQuoteActionField@@PEAUCThostFtdcRspInfoField@@H_N@Z
        1 ?OnRspQuoteAction@Rust_CThostFtdcTraderSpi@@UEAAXPEAUCThostFtdcInputQuoteActionField@@PEAUCThostFtdcRspInfoField@@H_N@Z
        1 ?OnRspQuoteInsert@CThostFtdcTraderSpi@@UEAAXPEAUCThostFtdcInputQuoteField@@PEAUCThostFtdcRspInfoField@@H_N@Z
        1 ?OnRspQuoteInsert@Rust_CThostFtdcTraderSpi@@UEAAXPEAUCThostFtdcInputQuoteField@@PEAUCThostFtdcRspInfoField@@H_N@Z
        1 ?OnRspRemoveParkedOrder@CThostFtdcTraderSpi@@UEAAXPEAUCThostFtdcRemoveParkedOrderField@@PEAUCThostFtdcRspInfoField@@H_N@Z
        1 ?OnRspRemoveParkedOrder@Rust_CThostFtdcTraderSpi@@UEAAXPEAUCThostFtdcRemoveParkedOrderField@@PEAUCThostFtdcRspInfoField@@H_N@Z
        1 ?OnRspRemoveParkedOrderAction@CThostFtdcTraderSpi@@UEAAXPEAUCThostFtdcRemoveParkedOrderActionField@@PEAUCThostFtdcRspInfoField@@H_N@Z
        1 ?OnRspRemoveParkedOrderAction@Rust_CThostFtdcTraderSpi@@UEAAXPEAUCThostFtdcRemoveParkedOrderActionField@@PEAUCThostFtdcRspInfoField@@H_N@Z
        1 ?OnRspSettlementInfoConfirm@CThostFtdcTraderSpi@@UEAAXPEAUCThostFtdcSettlementInfoConfirmField@@PEAUCThostFtdcRspInfoField@@H_N@Z
        1 ?OnRspSettlementInfoConfirm@Rust_CThostFtdcTraderSpi@@UEAAXPEAUCThostFtdcSettlementInfoConfirmField@@PEAUCThostFtdcRspInfoField@@H_N@Z
        1 ?OnRspSubForQuoteRsp@CThostFtdcMdSpi@@UEAAXPEAUCThostFtdcSpecificInstrumentField@@PEAUCThostFtdcRspInfoField@@H_N@Z
        1 ?OnRspSubForQuoteRsp@Rust_CThostFtdcMdSpi@@UEAAXPEAUCThostFtdcSpecificInstrumentField@@PEAUCThostFtdcRspInfoField@@H_N@Z
        1 ?OnRspSubMarketData@CThostFtdcMdSpi@@UEAAXPEAUCThostFtdcSpecificInstrumentField@@PEAUCThostFtdcRspInfoField@@H_N@Z
        1 ?OnRspSubMarketData@Rust_CThostFtdcMdSpi@@UEAAXPEAUCThostFtdcSpecificInstrumentField@@PEAUCThostFtdcRspInfoField@@H_N@Z
        1 ?OnRspTradingAccountPasswordUpdate@CThostFtdcTraderSpi@@UEAAXPEAUCThostFtdcTradingAccountPasswordUpdateField@@PEAUCThostFtdcRspInfoField@@H_N@Z
        1 ?OnRspTradingAccountPasswordUpdate@Rust_CThostFtdcTraderSpi@@UEAAXPEAUCThostFtdcTradingAccountPasswordUpdateField@@PEAUCThostFtdcRspInfoField@@H_N@Z
        1 ?OnRspUnSubForQuoteRsp@CThostFtdcMdSpi@@UEAAXPEAUCThostFtdcSpecificInstrumentField@@PEAUCThostFtdcRspInfoField@@H_N@Z
        1 ?OnRspUnSubForQuoteRsp@Rust_CThostFtdcMdSpi@@UEAAXPEAUCThostFtdcSpecificInstrumentField@@PEAUCThostFtdcRspInfoField@@H_N@Z
        1 ?OnRspUnSubMarketData@CThostFtdcMdSpi@@UEAAXPEAUCThostFtdcSpecificInstrumentField@@PEAUCThostFtdcRspInfoField@@H_N@Z
        1 ?OnRspUnSubMarketData@Rust_CThostFtdcMdSpi@@UEAAXPEAUCThostFtdcSpecificInstrumentField@@PEAUCThostFtdcRspInfoField@@H_N@Z
        1 ?OnRspUserAuthMethod@CThostFtdcTraderSpi@@UEAAXPEAUCThostFtdcRspUserAuthMethodField@@PEAUCThostFtdcRspInfoField@@H_N@Z
        1 ?OnRspUserAuthMethod@Rust_CThostFtdcTraderSpi@@UEAAXPEAUCThostFtdcRspUserAuthMethodField@@PEAUCThostFtdcRspInfoField@@H_N@Z
        1 ?OnRspUserLogin@CThostFtdcMdSpi@@UEAAXPEAUCThostFtdcRspUserLoginField@@PEAUCThostFtdcRspInfoField@@H_N@Z
        1 ?OnRspUserLogin@CThostFtdcTraderSpi@@UEAAXPEAUCThostFtdcRspUserLoginField@@PEAUCThostFtdcRspInfoField@@H_N@Z
        1 ?OnRspUserLogin@Rust_CThostFtdcMdSpi@@UEAAXPEAUCThostFtdcRspUserLoginField@@PEAUCThostFtdcRspInfoField@@H_N@Z
        1 ?OnRspUserLogin@Rust_CThostFtdcTraderSpi@@UEAAXPEAUCThostFtdcRspUserLoginField@@PEAUCThostFtdcRspInfoField@@H_N@Z
        1 ?OnRspUserLogout@CThostFtdcMdSpi@@UEAAXPEAUCThostFtdcUserLogoutField@@PEAUCThostFtdcRspInfoField@@H_N@Z
        1 ?OnRspUserLogout@CThostFtdcTraderSpi@@UEAAXPEAUCThostFtdcUserLogoutField@@PEAUCThostFtdcRspInfoField@@H_N@Z
        1 ?OnRspUserLogout@Rust_CThostFtdcMdSpi@@UEAAXPEAUCThostFtdcUserLogoutField@@PEAUCThostFtdcRspInfoField@@H_N@Z
        1 ?OnRspUserLogout@Rust_CThostFtdcTraderSpi@@UEAAXPEAUCThostFtdcUserLogoutField@@PEAUCThostFtdcRspInfoField@@H_N@Z
        1 ?OnRspUserPasswordUpdate@CThostFtdcTraderSpi@@UEAAXPEAUCThostFtdcUserPasswordUpdateField@@PEAUCThostFtdcRspInfoField@@H_N@Z
        1 ?OnRspUserPasswordUpdate@Rust_CThostFtdcTraderSpi@@UEAAXPEAUCThostFtdcUserPasswordUpdateField@@PEAUCThostFtdcRspInfoField@@H_N@Z
        1 ?OnRtnBulletin@CThostFtdcTraderSpi@@UEAAXPEAUCThostFtdcBulletinField@@@Z
        1 ?OnRtnBulletin@Rust_CThostFtdcTraderSpi@@UEAAXPEAUCThostFtdcBulletinField@@@Z
        1 ?OnRtnCFMMCTradingAccountToken@CThostFtdcTraderSpi@@UEAAXPEAUCThostFtdcCFMMCTradingAccountTokenField@@@Z
        1 ?OnRtnCFMMCTradingAccountToken@Rust_CThostFtdcTraderSpi@@UEAAXPEAUCThostFtdcCFMMCTradingAccountTokenField@@@Z
        1 ?OnRtnCancelAccountByBank@CThostFtdcTraderSpi@@UEAAXPEAUCThostFtdcCancelAccountField@@@Z
        1 ?OnRtnCancelAccountByBank@Rust_CThostFtdcTraderSpi@@UEAAXPEAUCThostFtdcCancelAccountField@@@Z
        1 ?OnRtnChangeAccountByBank@CThostFtdcTraderSpi@@UEAAXPEAUCThostFtdcChangeAccountField@@@Z
        1 ?OnRtnChangeAccountByBank@Rust_CThostFtdcTraderSpi@@UEAAXPEAUCThostFtdcChangeAccountField@@@Z
        1 ?OnRtnCombAction@CThostFtdcTraderSpi@@UEAAXPEAUCThostFtdcCombActionField@@@Z
        1 ?OnRtnCombAction@Rust_CThostFtdcTraderSpi@@UEAAXPEAUCThostFtdcCombActionField@@@Z
        1 ?OnRtnDepthMarketData@CThostFtdcMdSpi@@UEAAXPEAUCThostFtdcDepthMarketDataField@@@Z
        1 ?OnRtnDepthMarketData@Rust_CThostFtdcMdSpi@@UEAAXPEAUCThostFtdcDepthMarketDataField@@@Z
        1 ?OnRtnErrorConditionalOrder@CThostFtdcTraderSpi@@UEAAXPEAUCThostFtdcErrorConditionalOrderField@@@Z
        1 ?OnRtnErrorConditionalOrder@Rust_CThostFtdcTraderSpi@@UEAAXPEAUCThostFtdcErrorConditionalOrderField@@@Z
        1 ?OnRtnExecOrder@CThostFtdcTraderSpi@@UEAAXPEAUCThostFtdcExecOrderField@@@Z
        1 ?OnRtnExecOrder@Rust_CThostFtdcTraderSpi@@UEAAXPEAUCThostFtdcExecOrderField@@@Z
        1 ?OnRtnForQuoteRsp@CThostFtdcMdSpi@@UEAAXPEAUCThostFtdcForQuoteRspField@@@Z
        1 ?OnRtnForQuoteRsp@CThostFtdcTraderSpi@@UEAAXPEAUCThostFtdcForQuoteRspField@@@Z
        1 ?OnRtnForQuoteRsp@Rust_CThostFtdcMdSpi@@UEAAXPEAUCThostFtdcForQuoteRspField@@@Z
        1 ?OnRtnForQuoteRsp@Rust_CThostFtdcTraderSpi@@UEAAXPEAUCThostFtdcForQuoteRspField@@@Z
        1 ?OnRtnFromBankToFutureByBank@CThostFtdcTraderSpi@@UEAAXPEAUCThostFtdcRspTransferField@@@Z
        1 ?OnRtnFromBankToFutureByBank@Rust_CThostFtdcTraderSpi@@UEAAXPEAUCThostFtdcRspTransferField@@@Z
        1 ?OnRtnFromBankToFutureByFuture@CThostFtdcTraderSpi@@UEAAXPEAUCThostFtdcRspTransferField@@@Z
        1 ?OnRtnFromBankToFutureByFuture@Rust_CThostFtdcTraderSpi@@UEAAXPEAUCThostFtdcRspTransferField@@@Z
        1 ?OnRtnFromFutureToBankByBank@CThostFtdcTraderSpi@@UEAAXPEAUCThostFtdcRspTransferField@@@Z
        1 ?OnRtnFromFutureToBankByBank@Rust_CThostFtdcTraderSpi@@UEAAXPEAUCThostFtdcRspTransferField@@@Z
        1 ?OnRtnFromFutureToBankByFuture@CThostFtdcTraderSpi@@UEAAXPEAUCThostFtdcRspTransferField@@@Z
        1 ?OnRtnFromFutureToBankByFuture@Rust_CThostFtdcTraderSpi@@UEAAXPEAUCThostFtdcRspTransferField@@@Z
        1 ?OnRtnInstrumentStatus@CThostFtdcTraderSpi@@UEAAXPEAUCThostFtdcInstrumentStatusField@@@Z
        1 ?OnRtnInstrumentStatus@Rust_CThostFtdcTraderSpi@@UEAAXPEAUCThostFtdcInstrumentStatusField@@@Z
        1 ?OnRtnOpenAccountByBank@CThostFtdcTraderSpi@@UEAAXPEAUCThostFtdcOpenAccountField@@@Z
        1 ?OnRtnOpenAccountByBank@Rust_CThostFtdcTraderSpi@@UEAAXPEAUCThostFtdcOpenAccountField@@@Z
        1 ?OnRtnOptionSelfClose@CThostFtdcTraderSpi@@UEAAXPEAUCThostFtdcOptionSelfCloseField@@@Z
        1 ?OnRtnOptionSelfClose@Rust_CThostFtdcTraderSpi@@UEAAXPEAUCThostFtdcOptionSelfCloseField@@@Z
        1 ?OnRtnOrder@CThostFtdcTraderSpi@@UEAAXPEAUCThostFtdcOrderField@@@Z
        1 ?OnRtnOrder@Rust_CThostFtdcTraderSpi@@UEAAXPEAUCThostFtdcOrderField@@@Z
        1 ?OnRtnQueryBankBalanceByFuture@CThostFtdcTraderSpi@@UEAAXPEAUCThostFtdcNotifyQueryAccountField@@@Z
        1 ?OnRtnQueryBankBalanceByFuture@Rust_CThostFtdcTraderSpi@@UEAAXPEAUCThostFtdcNotifyQueryAccountField@@@Z
        1 ?OnRtnQuote@CThostFtdcTraderSpi@@UEAAXPEAUCThostFtdcQuoteField@@@Z
        1 ?OnRtnQuote@Rust_CThostFtdcTraderSpi@@UEAAXPEAUCThostFtdcQuoteField@@@Z
        1 ?OnRtnRepealFromBankToFutureByBank@CThostFtdcTraderSpi@@UEAAXPEAUCThostFtdcRspRepealField@@@Z
        1 ?OnRtnRepealFromBankToFutureByBank@Rust_CThostFtdcTraderSpi@@UEAAXPEAUCThostFtdcRspRepealField@@@Z
        1 ?OnRtnRepealFromBankToFutureByFuture@CThostFtdcTraderSpi@@UEAAXPEAUCThostFtdcRspRepealField@@@Z
        1 ?OnRtnRepealFromBankToFutureByFuture@Rust_CThostFtdcTraderSpi@@UEAAXPEAUCThostFtdcRspRepealField@@@Z
        1 ?OnRtnRepealFromBankToFutureByFutureManual@CThostFtdcTraderSpi@@UEAAXPEAUCThostFtdcRspRepealField@@@Z
        1 ?OnRtnRepealFromBankToFutureByFutureManual@Rust_CThostFtdcTraderSpi@@UEAAXPEAUCThostFtdcRspRepealField@@@Z
        1 ?OnRtnRepealFromFutureToBankByBank@CThostFtdcTraderSpi@@UEAAXPEAUCThostFtdcRspRepealField@@@Z
        1 ?OnRtnRepealFromFutureToBankByBank@Rust_CThostFtdcTraderSpi@@UEAAXPEAUCThostFtdcRspRepealField@@@Z
        1 ?OnRtnRepealFromFutureToBankByFuture@CThostFtdcTraderSpi@@UEAAXPEAUCThostFtdcRspRepealField@@@Z
        1 ?OnRtnRepealFromFutureToBankByFuture@Rust_CThostFtdcTraderSpi@@UEAAXPEAUCThostFtdcRspRepealField@@@Z
        1 ?OnRtnRepealFromFutureToBankByFutureManual@CThostFtdcTraderSpi@@UEAAXPEAUCThostFtdcRspRepealField@@@Z
        1 ?OnRtnRepealFromFutureToBankByFutureManual@Rust_CThostFtdcTraderSpi@@UEAAXPEAUCThostFtdcRspRepealField@@@Z
        1 ?OnRtnTrade@CThostFtdcTraderSpi@@UEAAXPEAUCThostFtdcTradeField@@@Z
        1 ?OnRtnTrade@Rust_CThostFtdcTraderSpi@@UEAAXPEAUCThostFtdcTradeField@@@Z
        1 ?OnRtnTradingNotice@CThostFtdcTraderSpi@@UEAAXPEAUCThostFtdcTradingNoticeInfoField@@@Z
        1 ?OnRtnTradingNotice@Rust_CThostFtdcTraderSpi@@UEAAXPEAUCThostFtdcTradingNoticeInfoField@@@Z
        1 ?RegisterFensUserInfo@Rust_CThostFtdcMdApi@@QEAAXPEAUCThostFtdcFensUserInfoField@@@Z
        1 ?RegisterFensUserInfo@Rust_CThostFtdcTraderApi@@QEAAXPEAUCThostFtdcFensUserInfoField@@@Z
        1 ?RegisterFront@Rust_CThostFtdcMdApi@@QEAAXPEAD@Z
        1 ?RegisterFront@Rust_CThostFtdcTraderApi@@QEAAXPEAD@Z
        1 ?RegisterNameServer@Rust_CThostFtdcMdApi@@QEAAXPEAD@Z
        1 ?RegisterNameServer@Rust_CThostFtdcTraderApi@@QEAAXPEAD@Z
        1 ?RegisterSpi@Rust_CThostFtdcMdApi@@QEAAXPEAVCThostFtdcMdSpi@@@Z
        1 ?RegisterSpi@Rust_CThostFtdcTraderApi@@QEAAXPEAVCThostFtdcTraderSpi@@@Z
        1 ?RegisterUserSystemInfo@Rust_CThostFtdcTraderApi@@QEAAHPEAUCThostFtdcUserSystemInfoField@@@Z
        1 ?Release@Rust_CThostFtdcMdApi@@QEAAXXZ
        1 ?Release@Rust_CThostFtdcTraderApi@@QEAAXXZ
        1 ?ReqAuthenticate@Rust_CThostFtdcTraderApi@@QEAAHPEAUCThostFtdcReqAuthenticateField@@H@Z
        1 ?ReqBatchOrderAction@Rust_CThostFtdcTraderApi@@QEAAHPEAUCThostFtdcInputBatchOrderActionField@@H@Z
        1 ?ReqCombActionInsert@Rust_CThostFtdcTraderApi@@QEAAHPEAUCThostFtdcInputCombActionField@@H@Z
        1 ?ReqExecOrderAction@Rust_CThostFtdcTraderApi@@QEAAHPEAUCThostFtdcInputExecOrderActionField@@H@Z
        1 ?ReqExecOrderInsert@Rust_CThostFtdcTraderApi@@QEAAHPEAUCThostFtdcInputExecOrderField@@H@Z
        1 ?ReqForQuoteInsert@Rust_CThostFtdcTraderApi@@QEAAHPEAUCThostFtdcInputForQuoteField@@H@Z
        1 ?ReqFromBankToFutureByFuture@Rust_CThostFtdcTraderApi@@QEAAHPEAUCThostFtdcReqTransferField@@H@Z
        1 ?ReqFromFutureToBankByFuture@Rust_CThostFtdcTraderApi@@QEAAHPEAUCThostFtdcReqTransferField@@H@Z
        1 ?ReqGenUserCaptcha@Rust_CThostFtdcTraderApi@@QEAAHPEAUCThostFtdcReqGenUserCaptchaField@@H@Z
        1 ?ReqGenUserText@Rust_CThostFtdcTraderApi@@QEAAHPEAUCThostFtdcReqGenUserTextField@@H@Z
        1 ?ReqOptionSelfCloseAction@Rust_CThostFtdcTraderApi@@QEAAHPEAUCThostFtdcInputOptionSelfCloseActionField@@H@Z
        1 ?ReqOptionSelfCloseInsert@Rust_CThostFtdcTraderApi@@QEAAHPEAUCThostFtdcInputOptionSelfCloseField@@H@Z
        1 ?ReqOrderAction@Rust_CThostFtdcTraderApi@@QEAAHPEAUCThostFtdcInputOrderActionField@@H@Z
        1 ?ReqOrderInsert@Rust_CThostFtdcTraderApi@@QEAAHPEAUCThostFtdcInputOrderField@@H@Z
        1 ?ReqParkedOrderAction@Rust_CThostFtdcTraderApi@@QEAAHPEAUCThostFtdcParkedOrderActionField@@H@Z
        1 ?ReqParkedOrderInsert@Rust_CThostFtdcTraderApi@@QEAAHPEAUCThostFtdcParkedOrderField@@H@Z
        1 ?ReqQryAccountregister@Rust_CThostFtdcTraderApi@@QEAAHPEAUCThostFtdcQryAccountregisterField@@H@Z
        1 ?ReqQryBrokerTradingAlgos@Rust_CThostFtdcTraderApi@@QEAAHPEAUCThostFtdcQryBrokerTradingAlgosField@@H@Z
        1 ?ReqQryBrokerTradingParams@Rust_CThostFtdcTraderApi@@QEAAHPEAUCThostFtdcQryBrokerTradingParamsField@@H@Z
        1 ?ReqQryCFMMCTradingAccountKey@Rust_CThostFtdcTraderApi@@QEAAHPEAUCThostFtdcQryCFMMCTradingAccountKeyField@@H@Z
        1 ?ReqQryClassifiedInstrument@Rust_CThostFtdcTraderApi@@QEAAHPEAUCThostFtdcQryClassifiedInstrumentField@@H@Z
        1 ?ReqQryCombAction@Rust_CThostFtdcTraderApi@@QEAAHPEAUCThostFtdcQryCombActionField@@H@Z
        1 ?ReqQryCombInstrumentGuard@Rust_CThostFtdcTraderApi@@QEAAHPEAUCThostFtdcQryCombInstrumentGuardField@@H@Z
        1 ?ReqQryCombPromotionParam@Rust_CThostFtdcTraderApi@@QEAAHPEAUCThostFtdcQryCombPromotionParamField@@H@Z
        1 ?ReqQryContractBank@Rust_CThostFtdcTraderApi@@QEAAHPEAUCThostFtdcQryContractBankField@@H@Z
        1 ?ReqQryDepthMarketData@Rust_CThostFtdcTraderApi@@QEAAHPEAUCThostFtdcQryDepthMarketDataField@@H@Z
        1 ?ReqQryEWarrantOffset@Rust_CThostFtdcTraderApi@@QEAAHPEAUCThostFtdcQryEWarrantOffsetField@@H@Z
        1 ?ReqQryExchange@Rust_CThostFtdcTraderApi@@QEAAHPEAUCThostFtdcQryExchangeField@@H@Z
        1 ?ReqQryExchangeMarginRate@Rust_CThostFtdcTraderApi@@QEAAHPEAUCThostFtdcQryExchangeMarginRateField@@H@Z
        1 ?ReqQryExchangeMarginRateAdjust@Rust_CThostFtdcTraderApi@@QEAAHPEAUCThostFtdcQryExchangeMarginRateAdjustField@@H@Z
        1 ?ReqQryExchangeRate@Rust_CThostFtdcTraderApi@@QEAAHPEAUCThostFtdcQryExchangeRateField@@H@Z
        1 ?ReqQryExecOrder@Rust_CThostFtdcTraderApi@@QEAAHPEAUCThostFtdcQryExecOrderField@@H@Z
        1 ?ReqQryForQuote@Rust_CThostFtdcTraderApi@@QEAAHPEAUCThostFtdcQryForQuoteField@@H@Z
        1 ?ReqQryInstrument@Rust_CThostFtdcTraderApi@@QEAAHPEAUCThostFtdcQryInstrumentField@@H@Z
        1 ?ReqQryInstrumentCommissionRate@Rust_CThostFtdcTraderApi@@QEAAHPEAUCThostFtdcQryInstrumentCommissionRateField@@H@Z
        1 ?ReqQryInstrumentMarginRate@Rust_CThostFtdcTraderApi@@QEAAHPEAUCThostFtdcQryInstrumentMarginRateField@@H@Z
        1 ?ReqQryInstrumentOrderCommRate@Rust_CThostFtdcTraderApi@@QEAAHPEAUCThostFtdcQryInstrumentOrderCommRateField@@H@Z
        1 ?ReqQryInvestUnit@Rust_CThostFtdcTraderApi@@QEAAHPEAUCThostFtdcQryInvestUnitField@@H@Z
        1 ?ReqQryInvestor@Rust_CThostFtdcTraderApi@@QEAAHPEAUCThostFtdcQryInvestorField@@H@Z
        1 ?ReqQryInvestorPosition@Rust_CThostFtdcTraderApi@@QEAAHPEAUCThostFtdcQryInvestorPositionField@@H@Z
        1 ?ReqQryInvestorPositionCombineDetail@Rust_CThostFtdcTraderApi@@QEAAHPEAUCThostFtdcQryInvestorPositionCombineDetailField@@H@Z
        1 ?ReqQryInvestorPositionDetail@Rust_CThostFtdcTraderApi@@QEAAHPEAUCThostFtdcQryInvestorPositionDetailField@@H@Z
        1 ?ReqQryInvestorProductGroupMargin@Rust_CThostFtdcTraderApi@@QEAAHPEAUCThostFtdcQryInvestorProductGroupMarginField@@H@Z
        1 ?ReqQryMMInstrumentCommissionRate@Rust_CThostFtdcTraderApi@@QEAAHPEAUCThostFtdcQryMMInstrumentCommissionRateField@@H@Z
        1 ?ReqQryMMOptionInstrCommRate@Rust_CThostFtdcTraderApi@@QEAAHPEAUCThostFtdcQryMMOptionInstrCommRateField@@H@Z
        1 ?ReqQryMaxOrderVolume@Rust_CThostFtdcTraderApi@@QEAAHPEAUCThostFtdcQryMaxOrderVolumeField@@H@Z
        1 ?ReqQryMulticastInstrument@Rust_CThostFtdcMdApi@@QEAAHPEAUCThostFtdcQryMulticastInstrumentField@@H@Z
        1 ?ReqQryNotice@Rust_CThostFtdcTraderApi@@QEAAHPEAUCThostFtdcQryNoticeField@@H@Z
        1 ?ReqQryOptionInstrCommRate@Rust_CThostFtdcTraderApi@@QEAAHPEAUCThostFtdcQryOptionInstrCommRateField@@H@Z
        1 ?ReqQryOptionInstrTradeCost@Rust_CThostFtdcTraderApi@@QEAAHPEAUCThostFtdcQryOptionInstrTradeCostField@@H@Z
        1 ?ReqQryOptionSelfClose@Rust_CThostFtdcTraderApi@@QEAAHPEAUCThostFtdcQryOptionSelfCloseField@@H@Z
        1 ?ReqQryOrder@Rust_CThostFtdcTraderApi@@QEAAHPEAUCThostFtdcQryOrderField@@H@Z
        1 ?ReqQryParkedOrder@Rust_CThostFtdcTraderApi@@QEAAHPEAUCThostFtdcQryParkedOrderField@@H@Z
        1 ?ReqQryParkedOrderAction@Rust_CThostFtdcTraderApi@@QEAAHPEAUCThostFtdcQryParkedOrderActionField@@H@Z
        1 ?ReqQryProduct@Rust_CThostFtdcTraderApi@@QEAAHPEAUCThostFtdcQryProductField@@H@Z
        1 ?ReqQryProductExchRate@Rust_CThostFtdcTraderApi@@QEAAHPEAUCThostFtdcQryProductExchRateField@@H@Z
        1 ?ReqQryProductGroup@Rust_CThostFtdcTraderApi@@QEAAHPEAUCThostFtdcQryProductGroupField@@H@Z
        1 ?ReqQryQuote@Rust_CThostFtdcTraderApi@@QEAAHPEAUCThostFtdcQryQuoteField@@H@Z
        1 ?ReqQryRiskSettleInvstPosition@Rust_CThostFtdcTraderApi@@QEAAHPEAUCThostFtdcQryRiskSettleInvstPositionField@@H@Z
        1 ?ReqQryRiskSettleProductStatus@Rust_CThostFtdcTraderApi@@QEAAHPEAUCThostFtdcQryRiskSettleProductStatusField@@H@Z
        1 ?ReqQrySecAgentACIDMap@Rust_CThostFtdcTraderApi@@QEAAHPEAUCThostFtdcQrySecAgentACIDMapField@@H@Z
        1 ?ReqQrySecAgentCheckMode@Rust_CThostFtdcTraderApi@@QEAAHPEAUCThostFtdcQrySecAgentCheckModeField@@H@Z
        1 ?ReqQrySecAgentTradeInfo@Rust_CThostFtdcTraderApi@@QEAAHPEAUCThostFtdcQrySecAgentTradeInfoField@@H@Z
        1 ?ReqQrySecAgentTradingAccount@Rust_CThostFtdcTraderApi@@QEAAHPEAUCThostFtdcQryTradingAccountField@@H@Z
        1 ?ReqQrySettlementInfo@Rust_CThostFtdcTraderApi@@QEAAHPEAUCThostFtdcQrySettlementInfoField@@H@Z
        1 ?ReqQrySettlementInfoConfirm@Rust_CThostFtdcTraderApi@@QEAAHPEAUCThostFtdcQrySettlementInfoConfirmField@@H@Z
        1 ?ReqQryTrade@Rust_CThostFtdcTraderApi@@QEAAHPEAUCThostFtdcQryTradeField@@H@Z
        1 ?ReqQryTradingAccount@Rust_CThostFtdcTraderApi@@QEAAHPEAUCThostFtdcQryTradingAccountField@@H@Z
        1 ?ReqQryTradingCode@Rust_CThostFtdcTraderApi@@QEAAHPEAUCThostFtdcQryTradingCodeField@@H@Z
        1 ?ReqQryTradingNotice@Rust_CThostFtdcTraderApi@@QEAAHPEAUCThostFtdcQryTradingNoticeField@@H@Z
        1 ?ReqQryTransferBank@Rust_CThostFtdcTraderApi@@QEAAHPEAUCThostFtdcQryTransferBankField@@H@Z
        1 ?ReqQryTransferSerial@Rust_CThostFtdcTraderApi@@QEAAHPEAUCThostFtdcQryTransferSerialField@@H@Z
        1 ?ReqQueryBankAccountMoneyByFuture@Rust_CThostFtdcTraderApi@@QEAAHPEAUCThostFtdcReqQueryAccountField@@H@Z
        1 ?ReqQueryCFMMCTradingAccountToken@Rust_CThostFtdcTraderApi@@QEAAHPEAUCThostFtdcQueryCFMMCTradingAccountTokenField@@H@Z
        1 ?ReqQuoteAction@Rust_CThostFtdcTraderApi@@QEAAHPEAUCThostFtdcInputQuoteActionField@@H@Z
        1 ?ReqQuoteInsert@Rust_CThostFtdcTraderApi@@QEAAHPEAUCThostFtdcInputQuoteField@@H@Z
        1 ?ReqRemoveParkedOrder@Rust_CThostFtdcTraderApi@@QEAAHPEAUCThostFtdcRemoveParkedOrderField@@H@Z
        1 ?ReqRemoveParkedOrderAction@Rust_CThostFtdcTraderApi@@QEAAHPEAUCThostFtdcRemoveParkedOrderActionField@@H@Z
        1 ?ReqSettlementInfoConfirm@Rust_CThostFtdcTraderApi@@QEAAHPEAUCThostFtdcSettlementInfoConfirmField@@H@Z
        1 ?ReqTradingAccountPasswordUpdate@Rust_CThostFtdcTraderApi@@QEAAHPEAUCThostFtdcTradingAccountPasswordUpdateField@@H@Z
        1 ?ReqUserAuthMethod@Rust_CThostFtdcTraderApi@@QEAAHPEAUCThostFtdcReqUserAuthMethodField@@H@Z
        1 ?ReqUserLogin@Rust_CThostFtdcMdApi@@QEAAHPEAUCThostFtdcReqUserLoginField@@H@Z
        1 ?ReqUserLogin@Rust_CThostFtdcTraderApi@@QEAAHPEAUCThostFtdcReqUserLoginField@@H@Z
        1 ?ReqUserLoginWithCaptcha@Rust_CThostFtdcTraderApi@@QEAAHPEAUCThostFtdcReqUserLoginWithCaptchaField@@H@Z
        1 ?ReqUserLoginWithOTP@Rust_CThostFtdcTraderApi@@QEAAHPEAUCThostFtdcReqUserLoginWithOTPField@@H@Z
        1 ?ReqUserLoginWithText@Rust_CThostFtdcTraderApi@@QEAAHPEAUCThostFtdcReqUserLoginWithTextField@@H@Z
        1 ?ReqUserLogout@Rust_CThostFtdcMdApi@@QEAAHPEAUCThostFtdcUserLogoutField@@H@Z
        1 ?ReqUserLogout@Rust_CThostFtdcTraderApi@@QEAAHPEAUCThostFtdcUserLogoutField@@H@Z
        1 ?ReqUserPasswordUpdate@Rust_CThostFtdcTraderApi@@QEAAHPEAUCThostFtdcUserPasswordUpdateField@@H@Z
        1 ?SubmitUserSystemInfo@Rust_CThostFtdcTraderApi@@QEAAHPEAUCThostFtdcUserSystemInfoField@@@Z
        1 ?SubscribeForQuoteRsp@Rust_CThostFtdcMdApi@@QEAAHQEAPEADH@Z
        1 ?SubscribeMarketData@Rust_CThostFtdcMdApi@@QEAAHQEAPEADH@Z
        1 ?SubscribePrivateTopic@Rust_CThostFtdcTraderApi@@QEAAXW4THOST_TE_RESUME_TYPE@@@Z
        1 ?SubscribePublicTopic@Rust_CThostFtdcTraderApi@@QEAAXW4THOST_TE_RESUME_TYPE@@@Z
        1 ?UnSubscribeForQuoteRsp@Rust_CThostFtdcMdApi@@QEAAHQEAPEADH@Z
        1 ?UnSubscribeMarketData@Rust_CThostFtdcMdApi@@QEAAHQEAPEADH@Z

Archive member name at 15D96: //              
62FCAF8B time/date Wed Aug 17 17:06:19 2022
         uid
         gid
       0 mode
      58 size
correct header end

  Summary

         A28 .chks64
          AA .data$rs
       1D090 .debug$S
       23F40 .debug$T
          2F .drectve
         C24 .pdata
         900 .rdata
         1F8 .rdata$r
        53BB .text$mn
         818 .xdata
